(lp0
(lp1
I3103
aS'Partnership / sole trader accounts'
p2
aa(lp3
I3023
aS'Limited company accounts'
p4
aa(lp5
I2969
aS'Tax(CGT, Corporate, IHT, Personal and VAT)'
p6
aa(lp7
I2482
aS'Business start-up and company formation'
p8
aa(lp9
I2154
aS'Management accounting consultancy'
p10
aa(lp11
I2071
aS'Business plans'
p12
aa(lp13
I1994
aS'Retail'
p14
aa(lp15
I1972
aS'Management advice to business'
p16
aa(lp17
I1840
aS'Tax and NI investigations'
p18
aa(lp19
I1830
aS'Sub-Contractors'
p20
aa(lp21
I1744
aS'Company secretarial service'
p22
aa(lp23
I1685
aS'Construction Industry'
p24
aa(lp25
I1638
aS'Catering (Pubs, Restaurants, Food and Drink)'
p26
aa(lp27
I1532
aS'Management consultancy'
p28
aa(lp29
I1499
aS'IT/Software'
p30
aa(lp31
I1407
aS'Manufacturing'
p32
aa(lp33
I1251
aS'Service Industries'
p34
aa(lp35
I1105
aS'Motor Retailers'
p36
aa(lp37
I1064
aS'Charities'
p38
aa(lp39
I1051
aS'Printing and Publishing'
p40
aa(lp41
I1018
aS'Engineering'
p42
aa(lp43
I978
aS'Dentists'
p44
aa(lp45
I951
aS'Clubs and Associations'
p46
aa(lp47
I932
aS'Distribution and Transport'
p48
aa(lp49
I910
aS'Information Technology'
p50
aa(lp51
I910
aS'Estate Agents'
p52
aa(lp53
I905
aS'Doctors'
p54
aa(lp55
I860
aS'Solicitors'
p56
aa(lp57
I805
aS'Entertainment'
p58
aa(lp59
I751
aS'Tourism and Travel Agents'
p60
aa(lp61
I737
aS'Cost systems and control'
p62
aa(lp63
I672
aS'Advertising'
p64
aa(lp65
I667
aS'Housing'
p66
aa(lp67
I659
aS'Data processing services'
p68
aa(lp69
I629
aS'Business process improvements'
p70
aa(lp71
I595
aS'Architects'
p72
aa(lp73
I551
aS'Financial Services'
p74
aa(lp75
I536
aS'Share valuations'
p76
aa(lp77
I447
aS'Education'
p78
aa(lp79
I433
aS'Internal audit and systems security'
p80
aa(lp81
I424
aS'Bank loans and overdrafts (inc SFLGS)'
p82
aa(lp83
I382
aS'Telecommunications'
p84
aa(lp85
I372
aS'Arts and Cultures Industries'
p86
aa(lp87
I343
aS'Trusteeship / Trust Administration'
p88
aa(lp89
I338
aS'Corporate finance'
p90
aa(lp91
I330
aS'Vets'
p92
aa(lp93
I329
aS'Estate planning and executorship'
p94
aa(lp95
I325
aS'Feasibility studies'
p96
aa(lp97
I299
aS'Agriculture and Forestry'
p98
aa(lp99
I296
aS'Small scale equity issues'
p100
aa(lp101
I268
aS'Friendly Societies'
p102
aa(lp103
I266
aS'Grants and Finance (EU,government)'
p104
aa(lp105
I253
aS'Business risk assessment'
p106
aa(lp107
I221
aS'Benchmarking'
p108
aa(lp109
I207
aS'Debt counselling'
p110
aa(lp111
I196
aS'Public sector'
p112
aa(lp113
I177
aS'Establishing a business overseas'
p114
aa(lp115
I173
aS'Expert witness'
p116
aa(lp117
I162
aS'Corporate recovery'
p118
aa(lp119
I142
aS'Divorce matrimonial'
p120
aa(lp121
I123
aS'Export finance planning and tax'
p122
aa(lp123
I120
aS'Business plans (external and internal)'
p124
aa(lp125
I117
aS'Treasury'
p126
aa(lp127
I116
aS'Start-up Finance(inc using own funds)'
p128
aa(lp129
I50
aS'Available for Continuity of Practice'
p130
aa(lp131
I31
aS'Arbitration'
p132
aa(lp133
I18
aS'Environmental auditing'
p134
aa.