(lp0
S'Certificates held'
p1
aS'Wholly composed of Chartered Certified Accountants'
p2
aS'Services offered'
p3
aS'Sector expertise'
p4
aS'Registered as auditors in the UK/Ireland by ACCA'
p5
aS'Regulated to undertake a range of investment business activities by ACCA under the Financial Services and Markets Act 2000'
p6
aS'Regulated to undertake a range of credit related activities under the Financial Services and Markets Act 2000'
p7
a.