(lp0
S'http://www.cimaglobal.com/About-us/Find-a-CIMA-Accountant/Blue-Osprey-Limited-10507/'
p1
aS'http://www.cimaglobal.com/About-us/Find-a-CIMA-Accountant/Tina-Murray-9869/'
p2
aS'http://www.cimaglobal.com/About-us/Find-a-CIMA-Accountant/FKM-ASSOCIATES-LTD-13650/'
p3
aS'http://www.cimaglobal.com/About-us/Find-a-CIMA-Accountant/Orm-Accounting-Services-11883/'
p4
aS'http://www.cimaglobal.com/About-us/Find-a-CIMA-Accountant/SJN-Consultants-Ltd-5606/'
p5
aS'http://www.cimaglobal.com/About-us/Find-a-CIMA-Accountant/K-T-Accountancy-10168/'
p6
aS'http://www.cimaglobal.com/About-us/Find-a-CIMA-Accountant/CM-Accountancy-Services-Ltd-10453/'
p7
aS'http://www.cimaglobal.com/About-us/Find-a-CIMA-Accountant/Hadley-Consultancy-5607/'
p8
aS'http://www.cimaglobal.com/About-us/Find-a-CIMA-Accountant/Nicolson-Accountancy-5608/'
p9
aS'http://www.cimaglobal.com/About-us/Find-a-CIMA-Accountant/Nilan-Accountancy-Ltd-5610/'
p10
aS'http://www.cimaglobal.com/About-us/Find-a-CIMA-Accountant/Nunns-Accounting-Services-13665/'
p11
aS'http://www.cimaglobal.com/About-us/Find-a-CIMA-Accountant/OD-Chartered-Management-Accountants-11562/'
p12
aS'http://www.cimaglobal.com/About-us/Find-a-CIMA-Accountant/Seggos-Associates-Ltd-11924/'
p13
aS'http://www.cimaglobal.com/About-us/Find-a-CIMA-Accountant/Conduco-Consulting-Ltd-10718/'
p14
aS'http://www.cimaglobal.com/About-us/Find-a-CIMA-Accountant/Mandrake-UK-Ltd-10509/'
p15
aS'http://www.cimaglobal.com/About-us/Find-a-CIMA-Accountant/The-Fabulous-Group-Ltd-12750/'
p16
aS'http://www.cimaglobal.com/About-us/Find-a-CIMA-Accountant/DG-Owens-Chartered-Management-Accountant-5620/'
p17
aS'http://www.cimaglobal.com/About-us/Find-a-CIMA-Accountant/Oxspring-Associates-Ltd-10230/'
p18
aS'http://www.cimaglobal.com/About-us/Find-a-CIMA-Accountant/ALP-Accountancy-Ltd-12438/'
p19
aS'http://www.cimaglobal.com/About-us/Find-a-CIMA-Accountant/Pailthorpes-Accountants-9522/'
p20
aS'http://www.cimaglobal.com/About-us/Find-a-CIMA-Accountant/Palmer-and-Company-5621/'
p21
aS'http://www.cimaglobal.com/About-us/Find-a-CIMA-Accountant/United-Fintec-Limited-13468/'
p22
aS'http://www.cimaglobal.com/About-us/Find-a-CIMA-Accountant/My-Contoller-Limited-9577/'
p23
aS'http://www.cimaglobal.com/About-us/Find-a-CIMA-Accountant/AMA-Tax-Accountants-Ltd-13580/'
p24
aS'http://www.cimaglobal.com/About-us/Find-a-CIMA-Accountant/Outsourced-ACC-12592/'
p25
aS'http://www.cimaglobal.com/About-us/Find-a-CIMA-Accountant/Addison-Accounting-Ltd-10303/'
p26
aS'http://www.cimaglobal.com/About-us/Find-a-CIMA-Accountant/Kristem-Consulting-10585/'
p27
aS'http://www.cimaglobal.com/About-us/Find-a-CIMA-Accountant/YA--Co-Accountants-Ltd-13581/'
p28
aS'http://www.cimaglobal.com/About-us/Find-a-CIMA-Accountant/Ahmad--Nabi-McMullan-12467/'
p29
aS'http://www.cimaglobal.com/About-us/Find-a-CIMA-Accountant/BCA-5378/'
p30
aS'http://www.cimaglobal.com/About-us/Find-a-CIMA-Accountant/Wahid-Ahmed--Co-Ltd-11280/'
p31
aS'http://www.cimaglobal.com/About-us/Find-a-CIMA-Accountant/DAVID-AKAKPO-13134/'
p32
aS'http://www.cimaglobal.com/About-us/Find-a-CIMA-Accountant/JETHRO-FINANCIAL-MANAGEMENT-LTD-13710/'
p33
aS'http://www.cimaglobal.com/About-us/Find-a-CIMA-Accountant/Taxaccolega-10781/'
p34
aS'http://www.cimaglobal.com/About-us/Find-a-CIMA-Accountant/Alam--Alam-Accountants-11678/'
p35
aS'http://www.cimaglobal.com/About-us/Find-a-CIMA-Accountant/AIMS-keith-Alfreds-ta-AIMS-11419/'
p36
aS'http://www.cimaglobal.com/About-us/Find-a-CIMA-Accountant/Ralph-Allan-9604/'
p37
aS'http://www.cimaglobal.com/About-us/Find-a-CIMA-Accountant/Consequent-Ltd-9772/'
p38
aS'http://www.cimaglobal.com/About-us/Find-a-CIMA-Accountant/Alterledger-Ltd-11718/'
p39
aS'http://www.cimaglobal.com/About-us/Find-a-CIMA-Accountant/Professional-Accountants-ltd-12056/'
p40
aS'http://www.cimaglobal.com/About-us/Find-a-CIMA-Accountant/Tax-Assist-Accountants-10412/'
p41
aS'http://www.cimaglobal.com/About-us/Find-a-CIMA-Accountant/D-Armstrong-10465/'
p42
aS'http://www.cimaglobal.com/About-us/Find-a-CIMA-Accountant/Gulzari-Babber--Co-5391/'
p43
aS'http://www.cimaglobal.com/About-us/Find-a-CIMA-Accountant/Abacus-155-Limited-9346/'
p44
aS'http://www.cimaglobal.com/About-us/Find-a-CIMA-Accountant/Banks-Cooper-Associates-Limited-5396/'
p45
aS'http://www.cimaglobal.com/About-us/Find-a-CIMA-Accountant/Chalkdell-Management-Accountants-Ltd-10537/'
p46
aS'http://www.cimaglobal.com/About-us/Find-a-CIMA-Accountant/QED-Financial-10360/'
p47
aS'http://www.cimaglobal.com/About-us/Find-a-CIMA-Accountant/Hammel-Accountancy-Services-Ltd-5646/'
p48
aS'http://www.cimaglobal.com/About-us/Find-a-CIMA-Accountant/Rowlands-and-White-Limited-13601/'
p49
aS'http://www.cimaglobal.com/About-us/Find-a-CIMA-Accountant/Woodlake-Business-Solutions-Ltd-10795/'
p50
aS'http://www.cimaglobal.com/About-us/Find-a-CIMA-Accountant/AR-Business-Consultancy-Ltd-9795/'
p51
aS'http://www.cimaglobal.com/About-us/Find-a-CIMA-Accountant/KER-Accountancy-Ltd-ta-AIMS-Accountants-for-Business-11271/'
p52
aS'http://www.cimaglobal.com/About-us/Find-a-CIMA-Accountant/Rutherford-Associates-Edinburgh-Ltd-10185/'
p53
aS'http://www.cimaglobal.com/About-us/Find-a-CIMA-Accountant/Elizabeth-Sanders-Limited-11570/'
p54
aS'http://www.cimaglobal.com/About-us/Find-a-CIMA-Accountant/Sagexcel-Accountancy-Ltd-9477/'
p55
aS'http://www.cimaglobal.com/About-us/Find-a-CIMA-Accountant/AA-Accounting-and-Business-Solutions-Associates-10364/'
p56
aS'http://www.cimaglobal.com/About-us/Find-a-CIMA-Accountant/FBS-Chartered-Management-Accountants-12441/'
p57
aS'http://www.cimaglobal.com/About-us/Find-a-CIMA-Accountant/EAM-London-Limited-9376/'
p58
aS'http://www.cimaglobal.com/About-us/Find-a-CIMA-Accountant/Philippa-Scobie-Accounting-Ltd-ta-AIMS-Accountants-for-Business-12891/'
p59
aS'http://www.cimaglobal.com/About-us/Find-a-CIMA-Accountant/RJS-Accountancy-Limited-11573/'
p60
aS'http://www.cimaglobal.com/About-us/Find-a-CIMA-Accountant/Hirsch--Co-Ltd-10878/'
p61
aS'http://www.cimaglobal.com/About-us/Find-a-CIMA-Accountant/Value-Add-Ltd-10832/'
p62
aS'http://www.cimaglobal.com/About-us/Find-a-CIMA-Accountant/Simpson-Accountancy-Ltd--Inkpot-Group-Ltd-Alison-Hurrell-ltd--Essex-Accoutants-Ltd-9759/'
p63
aS'http://www.cimaglobal.com/About-us/Find-a-CIMA-Accountant/Harrisons--Associates-Ltd-11423/'
p64
aS'http://www.cimaglobal.com/About-us/Find-a-CIMA-Accountant/Full-Stop-Accounts-10710/'
p65
aS'http://www.cimaglobal.com/About-us/Find-a-CIMA-Accountant/TEMPLECROWN-Ltd-10318/'
p66
aS'http://www.cimaglobal.com/About-us/Find-a-CIMA-Accountant/H-Ian-Hatfield-5525/'
p67
aS'http://www.cimaglobal.com/About-us/Find-a-CIMA-Accountant/Barry-Hawkins-9747/'
p68
aS'http://www.cimaglobal.com/About-us/Find-a-CIMA-Accountant/Hazley-Payne-Consulting-Ltd-ta-Rightsum-Accounting-11870/'
p69
aS'http://www.cimaglobal.com/About-us/Find-a-CIMA-Accountant/Translate-Accountancy-Ltd-13854/'
p70
aS'http://www.cimaglobal.com/About-us/Find-a-CIMA-Accountant/D-J-Hogg--Co-5533/'
p71
aS'http://www.cimaglobal.com/About-us/Find-a-CIMA-Accountant/Bourneside-Ltd-13202/'
p72
aS'http://www.cimaglobal.com/About-us/Find-a-CIMA-Accountant/Business-Direction-Ltd-5536/'
p73
aS'http://www.cimaglobal.com/About-us/Find-a-CIMA-Accountant/CMH-Accountancy-Services-11302/'
p74
aS'http://www.cimaglobal.com/About-us/Find-a-CIMA-Accountant/Agile-Accountancy-13697/'
p75
aS'http://www.cimaglobal.com/About-us/Find-a-CIMA-Accountant/Mike-Houldershaw-MBA-FCMA-CGMA-FCIS-CertEd-5539/'
p76
aS'http://www.cimaglobal.com/About-us/Find-a-CIMA-Accountant/Info-View-Ltd-5541/'
p77
aS'http://www.cimaglobal.com/About-us/Find-a-CIMA-Accountant/Exact-Accounting-Solutions-Limited-12341/'
p78
aS'http://www.cimaglobal.com/About-us/Find-a-CIMA-Accountant/Solve-Accounting--Finance-12176/'
p79
aS'http://www.cimaglobal.com/About-us/Find-a-CIMA-Accountant/Fox-Pemberton-Limited-10789/'
p80
aS'http://www.cimaglobal.com/About-us/Find-a-CIMA-Accountant/HUNTERS--CO-LTD-12735/'
p81
aS'http://www.cimaglobal.com/About-us/Find-a-CIMA-Accountant/Helle-McArthur-13636/'
p82
aS'http://www.cimaglobal.com/About-us/Find-a-CIMA-Accountant/Robert-Mcblain-Solutions-Ltd-10716/'
p83
aS'http://www.cimaglobal.com/About-us/Find-a-CIMA-Accountant/SMC-Accountants-Ltd-10717/'
p84
aS'http://www.cimaglobal.com/About-us/Find-a-CIMA-Accountant/Debbie-McDermott-12228/'
p85
aS'http://www.cimaglobal.com/About-us/Find-a-CIMA-Accountant/Anthony-Gilroy-Accountancy-Services-Ltd-10108/'
p86
aS'http://www.cimaglobal.com/About-us/Find-a-CIMA-Accountant/Aims-Alistair-McKenzie-9752/'
p87
aS'http://www.cimaglobal.com/About-us/Find-a-CIMA-Accountant/Guidon-Group-Ltd-12475/'
p88
aS'http://www.cimaglobal.com/About-us/Find-a-CIMA-Accountant/Broadview-House-Accounting-Ltd-10338/'
p89
aS'http://www.cimaglobal.com/About-us/Find-a-CIMA-Accountant/WIS-Accountancy-Limited-11410/'
p90
aS'http://www.cimaglobal.com/About-us/Find-a-CIMA-Accountant/BESTOPTION-ACCOUNTANTS-12346/'
p91
aS'http://www.cimaglobal.com/About-us/Find-a-CIMA-Accountant/Alpha-Business-Services-10227/'
p92
aS'http://www.cimaglobal.com/About-us/Find-a-CIMA-Accountant/Claire-Moran-10046/'
p93
aS'http://www.cimaglobal.com/About-us/Find-a-CIMA-Accountant/Alan-T-Morley-Ltd-9366/'
p94
aS'http://www.cimaglobal.com/About-us/Find-a-CIMA-Accountant/Accounting-Services-Ltd-5601/'
p95
aS'http://www.cimaglobal.com/About-us/Find-a-CIMA-Accountant/Samantha-Morrison-Financial-Management-12945/'
p96
aS'http://www.cimaglobal.com/About-us/Find-a-CIMA-Accountant/ADM-Accountancy-Services-Ltd-9789/'
p97
aS'http://www.cimaglobal.com/About-us/Find-a-CIMA-Accountant/Kathleen-Moss-9753/'
p98
aS'http://www.cimaglobal.com/About-us/Find-a-CIMA-Accountant/Double-Diamond-Accountancy-Services-Ltd-11696/'
p99
aS'http://www.cimaglobal.com/About-us/Find-a-CIMA-Accountant/Tom-Slater-10394/'
p100
aS'http://www.cimaglobal.com/About-us/Find-a-CIMA-Accountant/Willoughby--Co-11894/'
p101
aS'http://www.cimaglobal.com/About-us/Find-a-CIMA-Accountant/Aiteo-Consulting-Limited-12480/'
p102
aS'http://www.cimaglobal.com/About-us/Find-a-CIMA-Accountant/Stockport-Accountancy-Services-Ltd-11677/'
p103
aS'http://www.cimaglobal.com/About-us/Find-a-CIMA-Accountant/Gerard-Smyth--Company-5671/'
p104
aS'http://www.cimaglobal.com/About-us/Find-a-CIMA-Accountant/MJS-Accountants-Ltd-10369/'
p105
aS'http://www.cimaglobal.com/About-us/Find-a-CIMA-Accountant/Stead--Peake-Ltd-12353/'
p106
aS'http://www.cimaglobal.com/About-us/Find-a-CIMA-Accountant/Longmire-Consultants-Ltd-12788/'
p107
aS'http://www.cimaglobal.com/About-us/Find-a-CIMA-Accountant/PayStream-Accounting-Services-Limited-10065/'
p108
aS'http://www.cimaglobal.com/About-us/Find-a-CIMA-Accountant/Sutton-Accountancy-11247/'
p109
aS'http://www.cimaglobal.com/About-us/Find-a-CIMA-Accountant/Andy-Taylor-Financial-Consultancy-Ltd-13173/'
p110
aS'http://www.cimaglobal.com/About-us/Find-a-CIMA-Accountant/Parfitt-Taylor-Financial-Management-10856/'
p111
aS'http://www.cimaglobal.com/About-us/Find-a-CIMA-Accountant/Village-West-Ltd-ta-West-Village-12753/'
p112
aS'http://www.cimaglobal.com/About-us/Find-a-CIMA-Accountant/Summerfield-Taylor--Company-5689/'
p113
aS'http://www.cimaglobal.com/About-us/Find-a-CIMA-Accountant/Northants-Accounting-12348/'
p114
aS'http://www.cimaglobal.com/About-us/Find-a-CIMA-Accountant/Avocard-Interim-Management-Limited-12583/'
p115
aS'http://www.cimaglobal.com/About-us/Find-a-CIMA-Accountant/Modern-Learning-Ltd-9618/'
p116
aS'http://www.cimaglobal.com/About-us/Find-a-CIMA-Accountant/Helrik-and-Louw-Company-Ltd-10054/'
p117
aS'http://www.cimaglobal.com/About-us/Find-a-CIMA-Accountant/MIPACTS-LTD-12751/'
p118
aS'http://www.cimaglobal.com/About-us/Find-a-CIMA-Accountant/Pomroy-Associates-Limited-13718/'
p119
aS'http://www.cimaglobal.com/About-us/Find-a-CIMA-Accountant/Precision-Accountants-Ltd-13686/'
p120
aS'http://www.cimaglobal.com/About-us/Find-a-CIMA-Accountant/Kirsten-Prosser-13250/'
p121
aS'http://www.cimaglobal.com/About-us/Find-a-CIMA-Accountant/PDQ-Accounting-Ltd-13076/'
p122
aS'http://www.cimaglobal.com/About-us/Find-a-CIMA-Accountant/Arandur-Accounting-Limited-12278/'
p123
aS'http://www.cimaglobal.com/About-us/Find-a-CIMA-Accountant/Zoomquick-Services-LtdS-Radia--Associate-5638/'
p124
aS'http://www.cimaglobal.com/About-us/Find-a-CIMA-Accountant/Accountancy-Extra-10117/'
p125
aS'http://www.cimaglobal.com/About-us/Find-a-CIMA-Accountant/RMC-Accountancy-Ltd-ta-DNS-Accountants-12854/'
p126
aS'http://www.cimaglobal.com/About-us/Find-a-CIMA-Accountant/Goringe-Accountants-Ltd-9494/'
p127
aS'http://www.cimaglobal.com/About-us/Find-a-CIMA-Accountant/Accounting-Angels-Ltd-10159/'
p128
aS'http://www.cimaglobal.com/About-us/Find-a-CIMA-Accountant/Smarter-Accounting-12270/'
p129
aS'http://www.cimaglobal.com/About-us/Find-a-CIMA-Accountant/Columbus-Business-Management-Limited-10714/'
p130
aS'http://www.cimaglobal.com/About-us/Find-a-CIMA-Accountant/JAL-Accountancy-Services-5571/'
p131
aS'http://www.cimaglobal.com/About-us/Find-a-CIMA-Accountant/Accounting-Solutions-limited-9589/'
p132
aS'http://www.cimaglobal.com/About-us/Find-a-CIMA-Accountant/MacIver-Management-10725/'
p133
aS'http://www.cimaglobal.com/About-us/Find-a-CIMA-Accountant/Silkstone-Services-Ltd-5578/'
p134
aS'http://www.cimaglobal.com/About-us/Find-a-CIMA-Accountant/Macsen-Limited-10239/'
p135
aS'http://www.cimaglobal.com/About-us/Find-a-CIMA-Accountant/Sterling-Accounting-Services-11691/'
p136
aS'http://www.cimaglobal.com/About-us/Find-a-CIMA-Accountant/Alan-Matthews-FCMA-FCCA-5580/'
p137
aS'http://www.cimaglobal.com/About-us/Find-a-CIMA-Accountant/Matthews-Business-Associates-5581/'
p138
aS'http://www.cimaglobal.com/About-us/Find-a-CIMA-Accountant/W-Maurice-and-Co-13375/'
p139
aS'http://www.cimaglobal.com/About-us/Find-a-CIMA-Accountant/ASJ-Financial-Accounting-Services-Ltd-13168/'
p140
aS'http://www.cimaglobal.com/About-us/Find-a-CIMA-Accountant/Tim-Jarvis-13022/'
p141
aS'http://www.cimaglobal.com/About-us/Find-a-CIMA-Accountant/Richard-Johnson-13187/'
p142
aS'http://www.cimaglobal.com/About-us/Find-a-CIMA-Accountant/Jeff-Jones-Accountancy-12923/'
p143
aS'http://www.cimaglobal.com/About-us/Find-a-CIMA-Accountant/Magdalena-Karmowska-13716/'
p144
aS'http://www.cimaglobal.com/About-us/Find-a-CIMA-Accountant/Nickel-Solutions-13138/'
p145
aS'http://www.cimaglobal.com/About-us/Find-a-CIMA-Accountant/Accountancy-Value-13139/'
p146
aS'http://www.cimaglobal.com/About-us/Find-a-CIMA-Accountant/HUMAYLIAN-ACCOUNTING-SERVICES-12114/'
p147
aS'http://www.cimaglobal.com/About-us/Find-a-CIMA-Accountant/Exel-Accountancy-Ltd-12924/'
p148
aS'http://www.cimaglobal.com/About-us/Find-a-CIMA-Accountant/Synergy-Business-Management-10037/'
p149
aS'http://www.cimaglobal.com/About-us/Find-a-CIMA-Accountant/Trouble-With-Your-Figures-10328/'
p150
aS'http://www.cimaglobal.com/About-us/Find-a-CIMA-Accountant/CM-Accountants-Ltd-12809/'
p151
aS'http://www.cimaglobal.com/About-us/Find-a-CIMA-Accountant/Hallowes-accountancy-services-ltd-11877/'
p152
aS'http://www.cimaglobal.com/About-us/Find-a-CIMA-Accountant/LB-Accountancy-Services-9937/'
p153
aS'http://www.cimaglobal.com/About-us/Find-a-CIMA-Accountant/BBooks-Limited-13584/'
p154
aS'http://www.cimaglobal.com/About-us/Find-a-CIMA-Accountant/Riverside-Accountancy-Services-Limited-10568/'
p155
aS'http://www.cimaglobal.com/About-us/Find-a-CIMA-Accountant/BASUNIA--CO-12940/'
p156
aS'http://www.cimaglobal.com/About-us/Find-a-CIMA-Accountant/Natalies-Number-12512/'
p157
aS'http://www.cimaglobal.com/About-us/Find-a-CIMA-Accountant/Expand-Business-Services-Ltd-11531/'
p158
aS'http://www.cimaglobal.com/About-us/Find-a-CIMA-Accountant/Neptune-Accountants-Ltd-ta-AIMS-Accountants-for-Business-13442/'
p159
aS'http://www.cimaglobal.com/About-us/Find-a-CIMA-Accountant/Bevan-Financial-Management-Ltd-5409/'
p160
aS'http://www.cimaglobal.com/About-us/Find-a-CIMA-Accountant/Ritu-Bhagat-TAs-AIMS-Accountants-for-Business-12212/'
p161
aS'http://www.cimaglobal.com/About-us/Find-a-CIMA-Accountant/Not-Just-an-FD-13779/'
p162
aS'http://www.cimaglobal.com/About-us/Find-a-CIMA-Accountant/Binder-Management-Accounts-12523/'
p163
aS'http://www.cimaglobal.com/About-us/Find-a-CIMA-Accountant/Blakiston-finance-solutions-Limited-13171/'
p164
aS'http://www.cimaglobal.com/About-us/Find-a-CIMA-Accountant/Chesterton-Consultancy-Ltd-5417/'
p165
aS'http://www.cimaglobal.com/About-us/Find-a-CIMA-Accountant/A-Boniface-Financial-Services-10408/'
p166
aS'http://www.cimaglobal.com/About-us/Find-a-CIMA-Accountant/james-Boyle-10000/'
p167
aS'http://www.cimaglobal.com/About-us/Find-a-CIMA-Accountant/Richard-P-Brennand-5424/'
p168
aS'http://www.cimaglobal.com/About-us/Find-a-CIMA-Accountant/Excluserv-Limited-9873/'
p169
aS'http://www.cimaglobal.com/About-us/Find-a-CIMA-Accountant/Brotherton--Co-9352/'
p170
aS'http://www.cimaglobal.com/About-us/Find-a-CIMA-Accountant/Be-The-Boss-Ltd-12257/'
p171
aS'http://www.cimaglobal.com/About-us/Find-a-CIMA-Accountant/PB-Consulting-13889/'
p172
aS'http://www.cimaglobal.com/About-us/Find-a-CIMA-Accountant/BCB-Partnership-LLP-13788/'
p173
aS'http://www.cimaglobal.com/About-us/Find-a-CIMA-Accountant/Susan-Cottrill--Co-Ltd-5458/'
p174
aS'http://www.cimaglobal.com/About-us/Find-a-CIMA-Accountant/White-Strand-Business-Solutions-Ltd-12062/'
p175
aS'http://www.cimaglobal.com/About-us/Find-a-CIMA-Accountant/AC-Accounting-Solutions-5460/'
p176
aS'http://www.cimaglobal.com/About-us/Find-a-CIMA-Accountant/EC-Accounting-10452/'
p177
aS'http://www.cimaglobal.com/About-us/Find-a-CIMA-Accountant/Argento-Accountancy-Ltd-tas-Aims-5461/'
p178
aS'http://www.cimaglobal.com/About-us/Find-a-CIMA-Accountant/Fide-et-Fiducia-Limited-9823/'
p179
aS'http://www.cimaglobal.com/About-us/Find-a-CIMA-Accountant/AFS-Accounting-for-Success-10312/'
p180
aS'http://www.cimaglobal.com/About-us/Find-a-CIMA-Accountant/Taxes-and-Accounts-Ltd-ta-TaxAssist-Accountants-5463/'
p181
aS'http://www.cimaglobal.com/About-us/Find-a-CIMA-Accountant/BPGD-Ltd-9623/'
p182
aS'http://www.cimaglobal.com/About-us/Find-a-CIMA-Accountant/DDB-Financial-Solutions-Ltd-13820/'
p183
aS'http://www.cimaglobal.com/About-us/Find-a-CIMA-Accountant/Demel-Accountancy-Limited-11683/'
p184
aS'http://www.cimaglobal.com/About-us/Find-a-CIMA-Accountant/Centora-Limited-11223/'
p185
aS'http://www.cimaglobal.com/About-us/Find-a-CIMA-Accountant/Interim-Assistance-Ltd-5471/'
p186
aS'http://www.cimaglobal.com/About-us/Find-a-CIMA-Accountant/AJ-Dean-Chartered-Management-Accountants-Ltd-12065/'
p187
aS'http://www.cimaglobal.com/About-us/Find-a-CIMA-Accountant/Finling-Associates-Limited-12066/'
p188
aS'http://www.cimaglobal.com/About-us/Find-a-CIMA-Accountant/A-Thousand-Hills-Ltd-12336/'
p189
aS'http://www.cimaglobal.com/About-us/Find-a-CIMA-Accountant/Eightoaks-10015/'
p190
aS'http://www.cimaglobal.com/About-us/Find-a-CIMA-Accountant/bdcma-ltd-10226/'
p191
aS'http://www.cimaglobal.com/About-us/Find-a-CIMA-Accountant/Windsor-Accountancy-Ltd-Geoffrey-Dowling-5478/'
p192
aS'http://www.cimaglobal.com/About-us/Find-a-CIMA-Accountant/Accsett-ABC-10199/'
p193
aS'http://www.cimaglobal.com/About-us/Find-a-CIMA-Accountant/KSE-Finance-Support-Ltd-12921/'
p194
aS'http://www.cimaglobal.com/About-us/Find-a-CIMA-Accountant/Abacus-196-Ltd-10398/'
p195
aS'http://www.cimaglobal.com/About-us/Find-a-CIMA-Accountant/Egley-Accountancy-Services-Ltd-10094/'
p196
aS'http://www.cimaglobal.com/About-us/Find-a-CIMA-Accountant/The-Good-Bookkeeping-Company-Ltd-ta-The-Financial-Management-Centre-High-Wycombe-13696/'
p197
aS'http://www.cimaglobal.com/About-us/Find-a-CIMA-Accountant/Ashanta-Solutions-Ltd-9915/'
p198
aS'http://www.cimaglobal.com/About-us/Find-a-CIMA-Accountant/Customer-Centric-Business-Solutions-Limited-10486/'
p199
aS'http://www.cimaglobal.com/About-us/Find-a-CIMA-Accountant/Summit-Accounting-Ltd-5490/'
p200
aS'http://www.cimaglobal.com/About-us/Find-a-CIMA-Accountant/Sifar-Ltd-12889/'
p201
aS'http://www.cimaglobal.com/About-us/Find-a-CIMA-Accountant/AW-Fenn--Co-5494/'
p202
aS'http://www.cimaglobal.com/About-us/Find-a-CIMA-Accountant/Taylorcocks-Bristol-LLP-12385/'
p203
aS'http://www.cimaglobal.com/About-us/Find-a-CIMA-Accountant/Briarsmead--Limited-13495/'
p204
aS'http://www.cimaglobal.com/About-us/Find-a-CIMA-Accountant/Business-Partners-10145/'
p205
aS'http://www.cimaglobal.com/About-us/Find-a-CIMA-Accountant/David-Forrester-TA-Taxassist-Accountants-10096/'
p206
aS'http://www.cimaglobal.com/About-us/Find-a-CIMA-Accountant/Hedgerow-Accounting-Limited-12218/'
p207
aS'http://www.cimaglobal.com/About-us/Find-a-CIMA-Accountant/M-Francis-McDonald-Accountants-13479/'
p208
aS'http://www.cimaglobal.com/About-us/Find-a-CIMA-Accountant/Freeman-Accounting-Services-Ltd-5505/'
p209
aS'http://www.cimaglobal.com/About-us/Find-a-CIMA-Accountant/Sterling-Financial-Management-Ltd-11220/'
p210
aS'http://www.cimaglobal.com/About-us/Find-a-CIMA-Accountant/Kabamba-Bwalya-13217/'
p211
aS'http://www.cimaglobal.com/About-us/Find-a-CIMA-Accountant/JCA-Accountants-Limited-11300/'
p212
aS'http://www.cimaglobal.com/About-us/Find-a-CIMA-Accountant/Rebecca-Carruthers-Accountancy-Limited-13102/'
p213
aS'http://www.cimaglobal.com/About-us/Find-a-CIMA-Accountant/Green-And-Purple-Ltd-5437/'
p214
aS'http://www.cimaglobal.com/About-us/Find-a-CIMA-Accountant/Brendan-Cassidy-ta-AIMS-Accountants-for-Business-10475/'
p215
aS'http://www.cimaglobal.com/About-us/Find-a-CIMA-Accountant/ML-Accountants-Ltd-12760/'
p216
aS'http://www.cimaglobal.com/About-us/Find-a-CIMA-Accountant/Certax-Accounting-Bilston-Ltd-12879/'
p217
aS'http://www.cimaglobal.com/About-us/Find-a-CIMA-Accountant/Webb--Wallace-12425/'
p218
aS'http://www.cimaglobal.com/About-us/Find-a-CIMA-Accountant/Clarus-Finance-Ltd-12258/'
p219
aS'http://www.cimaglobal.com/About-us/Find-a-CIMA-Accountant/SJ-Clarke-Associates-Limited-10737/'
p220
aS'http://www.cimaglobal.com/About-us/Find-a-CIMA-Accountant/Caitellie-Accounts-13104/'
p221
aS'http://www.cimaglobal.com/About-us/Find-a-CIMA-Accountant/Zaffre-Group-13439/'
p222
aS'http://www.cimaglobal.com/About-us/Find-a-CIMA-Accountant/Apex-Accounting-Solutions-Limited-12110/'
p223
aS'http://www.cimaglobal.com/About-us/Find-a-CIMA-Accountant/Tailored-Accountancy-9903/'
p224
aS'http://www.cimaglobal.com/About-us/Find-a-CIMA-Accountant/Advanced-Accounting-Solutions-Ltd-13489/'
p225
aS'http://www.cimaglobal.com/About-us/Find-a-CIMA-Accountant/Nathan--Co-5692/'
p226
aS'http://www.cimaglobal.com/About-us/Find-a-CIMA-Accountant/One-Accounting-Ltd-5693/'
p227
aS'http://www.cimaglobal.com/About-us/Find-a-CIMA-Accountant/M-Thornhill--Co-5695/'
p228
aS'http://www.cimaglobal.com/About-us/Find-a-CIMA-Accountant/White-Bull-Consulting-Limited-12852/'
p229
aS'http://www.cimaglobal.com/About-us/Find-a-CIMA-Accountant/P-D-Tracey--Co-Ltd-5704/'
p230
aS'http://www.cimaglobal.com/About-us/Find-a-CIMA-Accountant/Traynor-accounting-Ltd-10375/'
p231
aS'http://www.cimaglobal.com/About-us/Find-a-CIMA-Accountant/Kaizen-Consulting-10068/'
p232
aS'http://www.cimaglobal.com/About-us/Find-a-CIMA-Accountant/Trigg-Accountancy-Ltd-5705/'
p233
aS'http://www.cimaglobal.com/About-us/Find-a-CIMA-Accountant/Kweks-Co-Ltd-10663/'
p234
aS'http://www.cimaglobal.com/About-us/Find-a-CIMA-Accountant/Andrea-Turner-9453/'
p235
aS'http://www.cimaglobal.com/About-us/Find-a-CIMA-Accountant/Lesley-Upton-Accounting-Services-5708/'
p236
aS'http://www.cimaglobal.com/About-us/Find-a-CIMA-Accountant/Smart-Accounts-Sussex-Ltd-9856/'
p237
aS'http://www.cimaglobal.com/About-us/Find-a-CIMA-Accountant/GKV-Accountancy-LTD-10518/'
p238
aS'http://www.cimaglobal.com/About-us/Find-a-CIMA-Accountant/ET-Voila-Accountancy-Services-Limited-10445/'
p239
aS'http://www.cimaglobal.com/About-us/Find-a-CIMA-Accountant/ICM-Solutions-Limited-ta-MW-Interim-Finance-10071/'
p240
aS'http://www.cimaglobal.com/About-us/Find-a-CIMA-Accountant/Audeo-Accounting-12116/'
p241
aS'http://www.cimaglobal.com/About-us/Find-a-CIMA-Accountant/Grant-Walton-TA-AIMS-13471/'
p242
aS'http://www.cimaglobal.com/About-us/Find-a-CIMA-Accountant/Oasis-Accounting-Services-Ltd-12233/'
p243
aS'http://www.cimaglobal.com/About-us/Find-a-CIMA-Accountant/WARDLE-ACCOUNTANTS-LTD-5717/'
p244
aS'http://www.cimaglobal.com/About-us/Find-a-CIMA-Accountant/Tax-Refund-Services-12284/'
p245
aS'http://www.cimaglobal.com/About-us/Find-a-CIMA-Accountant/George-Watts-Associates-Ltd-9380/'
p246
aS'http://www.cimaglobal.com/About-us/Find-a-CIMA-Accountant/Watts-Accountancy-Services-12117/'
p247
aS'http://www.cimaglobal.com/About-us/Find-a-CIMA-Accountant/Weir-Associates-Ltd-12803/'
p248
aS'http://www.cimaglobal.com/About-us/Find-a-CIMA-Accountant/Weller-Wilson-12848/'
p249
aS'http://www.cimaglobal.com/About-us/Find-a-CIMA-Accountant/Abacus-Business-Solutions-Consultancy-Ltd-9989/'
p250
aS'http://www.cimaglobal.com/About-us/Find-a-CIMA-Accountant/Mr-J-P-Whelan-10260/'
p251
aS'http://www.cimaglobal.com/About-us/Find-a-CIMA-Accountant/Greenfield-White-Partners-12413/'
p252
aS'http://www.cimaglobal.com/About-us/Find-a-CIMA-Accountant/Ashbourne-Self-Assessment-Services-Ltd-13503/'
p253
aS'http://www.cimaglobal.com/About-us/Find-a-CIMA-Accountant/Elemental-Business-and-Finance-Limited-5724/'
p254
aS'http://www.cimaglobal.com/About-us/Find-a-CIMA-Accountant/KLWhitehouse-Associates-Ltd-5725/'
p255
aS'http://www.cimaglobal.com/About-us/Find-a-CIMA-Accountant/173-Limited-13826/'
p256
aS'http://www.cimaglobal.com/About-us/Find-a-CIMA-Accountant/Harwood-and-Partners-Ltd-13443/'
p257
aS'http://www.cimaglobal.com/About-us/Find-a-CIMA-Accountant/Williams-Chartered-Management-Accountants-10448/'
p258
aS'http://www.cimaglobal.com/About-us/Find-a-CIMA-Accountant/Wong-Lange--Co-11582/'
p259
aS'http://www.cimaglobal.com/About-us/Find-a-CIMA-Accountant/Vegas-Accounting-Services-Ltd-12898/'
p260
aS'http://www.cimaglobal.com/About-us/Find-a-CIMA-Accountant/Redma-Limited-11584/'
p261
aS'http://www.cimaglobal.com/About-us/Find-a-CIMA-Accountant/GRIP-BUSINESS-CONSULTANCY-LTD-11574/'
p262
aS'http://www.cimaglobal.com/About-us/Find-a-CIMA-Accountant/NumeriQa-Limited-10622/'
p263
aS'http://www.cimaglobal.com/About-us/Find-a-CIMA-Accountant/My-Part-Time-FD-Ltd-TA-Gerrard-Accounting-9826/'
p264
aS'http://www.cimaglobal.com/About-us/Find-a-CIMA-Accountant/Accountants-with-a-Difference-Ltd-10025/'
p265
aS'http://www.cimaglobal.com/About-us/Find-a-CIMA-Accountant/Goddard-Williams-LLP-5511/'
p266
aS'http://www.cimaglobal.com/About-us/Find-a-CIMA-Accountant/Abacus-460-Ltd-5512/'
p267
aS'http://www.cimaglobal.com/About-us/Find-a-CIMA-Accountant/Revolution-Business-Support-Services-Ltd-TA-AIMS-13737/'
p268
aS'http://www.cimaglobal.com/About-us/Find-a-CIMA-Accountant/Gorringe-and-Co-12220/'
p269
aS'http://www.cimaglobal.com/About-us/Find-a-CIMA-Accountant/Douglas-Douglas--Stewart-11868/'
p270
aS'http://www.cimaglobal.com/About-us/Find-a-CIMA-Accountant/Oaklands-Accountants-Ltd-13649/'
p271
aS'http://www.cimaglobal.com/About-us/Find-a-CIMA-Accountant/AMAS-Scotland-Ltd-5515/'
p272
aS'http://www.cimaglobal.com/About-us/Find-a-CIMA-Accountant/C-LGreen-10146/'
p273
aS'http://www.cimaglobal.com/About-us/Find-a-CIMA-Accountant/A-G-Accountancy-12777/'
p274
aS'http://www.cimaglobal.com/About-us/Find-a-CIMA-Accountant/Gregory-Accounting-Services-Ltd-12337/'
p275
aS'http://www.cimaglobal.com/About-us/Find-a-CIMA-Accountant/TLG-Accounting-Ltd-9886/'
p276
aS'http://www.cimaglobal.com/About-us/Find-a-CIMA-Accountant/Gutteridge--Co-9639/'
p277
aS'http://www.cimaglobal.com/About-us/Find-a-CIMA-Accountant/John-Haggart-Ltd---Aims-Accountants-for-Business-10147/'
p278
aS'http://www.cimaglobal.com/About-us/Find-a-CIMA-Accountant/Halliwell--Company-Accountants--Tax-Advisors-LLP-9970/'
p279
aS'http://www.cimaglobal.com/About-us/Find-a-CIMA-Accountant/SNH-Capital-Management-Ltd-9781/'
p280
aS'http://www.cimaglobal.com/About-us/Find-a-CIMA-Accountant/Crystal-Clear-Business-Consultants-Ltd-12338/'
p281
aS'http://www.cimaglobal.com/About-us/Find-a-CIMA-Accountant/Admor-Business-Solutions-9513/'
p282
aS'http://www.cimaglobal.com/About-us/Find-a-CIMA-Accountant/Stephen-Harman-and-Co-10221/'
p283
aS'http://www.cimaglobal.com/About-us/Find-a-CIMA-Accountant/Maxine-Harris-12599/'
p284
aS'http://www.cimaglobal.com/About-us/Find-a-CIMA-Accountant/Robert-A-Harris--Co-10823/'
p285
aS'http://www.cimaglobal.com/About-us/Find-a-CIMA-Accountant/A-K-Jardine-Accountancy-LTD-13021/'
p286
aS'http://www.cimaglobal.com/About-us/Find-a-CIMA-Accountant/Total-Solutions-UK-Ltd-TSL-5547/'
p287
aS'http://www.cimaglobal.com/About-us/Find-a-CIMA-Accountant/Probus-Financial-Consultants-Ltd-10288/'
p288
aS'http://www.cimaglobal.com/About-us/Find-a-CIMA-Accountant/Graham-Johnson-Accounting-Services-12767/'
p289
aS'http://www.cimaglobal.com/About-us/Find-a-CIMA-Accountant/Hayward-May-Consulting-Ltd-13218/'
p290
aS'http://www.cimaglobal.com/About-us/Find-a-CIMA-Accountant/Jenny-Jones-Finance-Manager-Solutions-12269/'
p291
aS'http://www.cimaglobal.com/About-us/Find-a-CIMA-Accountant/Alchemy-Financial-Concepts-Ltd-9508/'
p292
aS'http://www.cimaglobal.com/About-us/Find-a-CIMA-Accountant/Ian-Judge-Business-Management-11551/'
p293
aS'http://www.cimaglobal.com/About-us/Find-a-CIMA-Accountant/Star-Accountancy--Computer-Service-9647/'
p294
aS'http://www.cimaglobal.com/About-us/Find-a-CIMA-Accountant/Greendawn-Accounting-Ltd-10979/'
p295
aS'http://www.cimaglobal.com/About-us/Find-a-CIMA-Accountant/Bluecrest-Chartered-Management-Accountants-Ltd-5553/'
p296
aS'http://www.cimaglobal.com/About-us/Find-a-CIMA-Accountant/Accounting-etc-Limited-10243/'
p297
aS'http://www.cimaglobal.com/About-us/Find-a-CIMA-Accountant/UKFS-Consulting-Ltd-11231/'
p298
aS'http://www.cimaglobal.com/About-us/Find-a-CIMA-Accountant/Accounts-Support-Ltd-10327/'
p299
aS'http://www.cimaglobal.com/About-us/Find-a-CIMA-Accountant/Peter-A-King-5556/'
p300
aS'http://www.cimaglobal.com/About-us/Find-a-CIMA-Accountant/Mel-Kirkby-12001/'
p301
aS'http://www.cimaglobal.com/About-us/Find-a-CIMA-Accountant/Bcs-Management-Accountancy-Ltd-10429/'
p302
aS'http://www.cimaglobal.com/About-us/Find-a-CIMA-Accountant/The-Finance-Department-11553/'
p303
aS'http://www.cimaglobal.com/About-us/Find-a-CIMA-Accountant/ZHENYU-LAI-ta-Lai--Co-12495/'
p304
aS'http://www.cimaglobal.com/About-us/Find-a-CIMA-Accountant/Kirt--Co-Accountants-Limited-10176/'
p305
aS'http://www.cimaglobal.com/About-us/Find-a-CIMA-Accountant/Surendra-Patel-10648/'
p306
aS'http://www.cimaglobal.com/About-us/Find-a-CIMA-Accountant/Upesh-Patel-ta-AIMS-13599/'
p307
aS'http://www.cimaglobal.com/About-us/Find-a-CIMA-Accountant/C-H-Phillips-5629/'
p308
aS'http://www.cimaglobal.com/About-us/Find-a-CIMA-Accountant/AFS-Accounts-9830/'
p309
aS'http://www.cimaglobal.com/About-us/Find-a-CIMA-Accountant/Pollock-Accounting-Ltd-9757/'
p310
aS'http://www.cimaglobal.com/About-us/Find-a-CIMA-Accountant/Mrs-S-Powell-10179/'
p311
aS'http://www.cimaglobal.com/About-us/Find-a-CIMA-Accountant/Douglas-Accounting-Ltd-10794/'
p312
aS'http://www.cimaglobal.com/About-us/Find-a-CIMA-Accountant/Accounting-Logic-9619/'
p313
aS'http://www.cimaglobal.com/About-us/Find-a-CIMA-Accountant/NY-Accountancy-Ltd-9794/'
p314
aS'http://www.cimaglobal.com/About-us/Find-a-CIMA-Accountant/Intensive-Management-Support-Ltd-5635/'
p315
aS'http://www.cimaglobal.com/About-us/Find-a-CIMA-Accountant/Q-Accountancy-Services-10180/'
p316
aS'http://www.cimaglobal.com/About-us/Find-a-CIMA-Accountant/Certax-St-Albans-District-13485/'
p317
aS'http://www.cimaglobal.com/About-us/Find-a-CIMA-Accountant/Redmond-Acre-Accounting-10118/'
p318
aS'http://www.cimaglobal.com/About-us/Find-a-CIMA-Accountant/wellbalanced-12855/'
p319
aS'http://www.cimaglobal.com/About-us/Find-a-CIMA-Accountant/Larch-Accountancy-10440/'
p320
aS'http://www.cimaglobal.com/About-us/Find-a-CIMA-Accountant/Renfrew-Consulting-10654/'
p321
aS'http://www.cimaglobal.com/About-us/Find-a-CIMA-Accountant/RenneR--Co-Chartered-Management-Accountants-10119/'
p322
aS'http://www.cimaglobal.com/About-us/Find-a-CIMA-Accountant/Academy-Financial-Management-Services-Ltd-12927/'
p323
aS'http://www.cimaglobal.com/About-us/Find-a-CIMA-Accountant/Richman--Co-12846/'
p324
aS'http://www.cimaglobal.com/About-us/Find-a-CIMA-Accountant/Gold-Stone-Finance-10319/'
p325
aS'http://www.cimaglobal.com/About-us/Find-a-CIMA-Accountant/LA1-Accounting-Services-Limited-13148/'
p326
aS'http://www.cimaglobal.com/About-us/Find-a-CIMA-Accountant/FP-Helsby-Associates-Limited-5527/'
p327
aS'http://www.cimaglobal.com/About-us/Find-a-CIMA-Accountant/Hemingway-Bailey-Ltd-10320/'
p328
aS'http://www.cimaglobal.com/About-us/Find-a-CIMA-Accountant/New-Management-Services-Accounting--Renewables-NMS-AR-13590/'
p329
aS'http://www.cimaglobal.com/About-us/Find-a-CIMA-Accountant/Certax-Accounting-Sunderland-Ltd-12761/'
p330
aS'http://www.cimaglobal.com/About-us/Find-a-CIMA-Accountant/Practical-Business-Solutions-NW-Limited-10978/'
p331
aS'http://www.cimaglobal.com/About-us/Find-a-CIMA-Accountant/Clear-Business-Services-Ltd-12802/'
p332
aS'http://www.cimaglobal.com/About-us/Find-a-CIMA-Accountant/Hodgson-Finance-Ltd-11872/'
p333
aS'http://www.cimaglobal.com/About-us/Find-a-CIMA-Accountant/GWH-Consulting-Limited-12070/'
p334
aS'http://www.cimaglobal.com/About-us/Find-a-CIMA-Accountant/KLH-BUSINESS-CONSULTANCY-GROUP-10151/'
p335
aS'http://www.cimaglobal.com/About-us/Find-a-CIMA-Accountant/G-Hornby-and-Co-11873/'
p336
aS'http://www.cimaglobal.com/About-us/Find-a-CIMA-Accountant/Del--Co-11559/'
p337
aS'http://www.cimaglobal.com/About-us/Find-a-CIMA-Accountant/Hannage-Consulting-Ltd-13031/'
p338
aS'http://www.cimaglobal.com/About-us/Find-a-CIMA-Accountant/Estria-Ltd-11549/'
p339
aS'http://www.cimaglobal.com/About-us/Find-a-CIMA-Accountant/Aims-Accountants-for-Business-10202/'
p340
aS'http://www.cimaglobal.com/About-us/Find-a-CIMA-Accountant/Tax-Concept-Ltd-13714/'
p341
aS'http://www.cimaglobal.com/About-us/Find-a-CIMA-Accountant/J-Gamgee-Accounting-Ltd-10786/'
p342
aS'http://www.cimaglobal.com/About-us/Find-a-CIMA-Accountant/Brilliant-Accounts-Limited-13480/'
p343
aS'http://www.cimaglobal.com/About-us/Find-a-CIMA-Accountant/Whiteberry-Ltd-10883/'
p344
aS'http://www.cimaglobal.com/About-us/Find-a-CIMA-Accountant/Logic-Accountancy-Solutions-Ltd-12264/'
p345
aS'http://www.cimaglobal.com/About-us/Find-a-CIMA-Accountant/FD-Works-11301/'
p346
aS'http://www.cimaglobal.com/About-us/Find-a-CIMA-Accountant/Stuart-Glass-9969/'
p347
aS'http://www.cimaglobal.com/About-us/Find-a-CIMA-Accountant/Mike-Gordon-ta-Quaerito-10564/'
p348
aS'http://www.cimaglobal.com/About-us/Find-a-CIMA-Accountant/JG-Accounting-Ltd-13254/'
p349
aS'http://www.cimaglobal.com/About-us/Find-a-CIMA-Accountant/Priory-Accounting--Tax-Ltd-13891/'
p350
aS'http://www.cimaglobal.com/About-us/Find-a-CIMA-Accountant/Chris-Grant--Co-Ltd-5514/'
p351
aS'http://www.cimaglobal.com/About-us/Find-a-CIMA-Accountant/Josie-Greenaway-10027/'
p352
aS'http://www.cimaglobal.com/About-us/Find-a-CIMA-Accountant/Stephanie-Grennall-Accountancy-Services-10493/'
p353
aS'http://www.cimaglobal.com/About-us/Find-a-CIMA-Accountant/Manthorpe-Grint-Ltd-10099/'
p354
aS'http://www.cimaglobal.com/About-us/Find-a-CIMA-Accountant/Linnaeus-Advisors-Ltd-13198/'
p355
aS'http://www.cimaglobal.com/About-us/Find-a-CIMA-Accountant/Agora-Bay-Limited-13199/'
p356
aS'http://www.cimaglobal.com/About-us/Find-a-CIMA-Accountant/Nicola-Hageman-Accountancy-Ltd-12508/'
p357
aS'http://www.cimaglobal.com/About-us/Find-a-CIMA-Accountant/Community-Manufacturing-Services--Training-Ltd-11546/'
p358
aS'http://www.cimaglobal.com/About-us/Find-a-CIMA-Accountant/SBM-Accountancy-Ltd-13461/'
p359
aS'http://www.cimaglobal.com/About-us/Find-a-CIMA-Accountant/SM-Accountancy-Solutions-Limited-13483/'
p360
aS'http://www.cimaglobal.com/About-us/Find-a-CIMA-Accountant/Moeez-Imran--Co-Limited-12840/'
p361
aS'http://www.cimaglobal.com/About-us/Find-a-CIMA-Accountant/JDM-Accountancy-Ltd-10435/'
p362
aS'http://www.cimaglobal.com/About-us/Find-a-CIMA-Accountant/Pluto-consultancy-Ltd-11284/'
p363
aS'http://www.cimaglobal.com/About-us/Find-a-CIMA-Accountant/Burning-Pine-Ltd-12395/'
p364
aS'http://www.cimaglobal.com/About-us/Find-a-CIMA-Accountant/John-Murphy-10825/'
p365
aS'http://www.cimaglobal.com/About-us/Find-a-CIMA-Accountant/PJM-Consulting-12946/'
p366
aS'http://www.cimaglobal.com/About-us/Find-a-CIMA-Accountant/Orbit-Guardian-Management-Solutions-11882/'
p367
aS'http://www.cimaglobal.com/About-us/Find-a-CIMA-Accountant/Polden-Accountants-Ltd-10344/'
p368
aS'http://www.cimaglobal.com/About-us/Find-a-CIMA-Accountant/Aims-Nolan-Financial-Management-Ltd-TA-AIMS-Accountants-for-Business-10111/'
p369
aS'http://www.cimaglobal.com/About-us/Find-a-CIMA-Accountant/TL--S-Orchard-5619/'
p370
aS'http://www.cimaglobal.com/About-us/Find-a-CIMA-Accountant/SJO-Accountants-Ltd-9756/'
p371
aS'http://www.cimaglobal.com/About-us/Find-a-CIMA-Accountant/InnPerium-Ltd-12408/'
p372
aS'http://www.cimaglobal.com/About-us/Find-a-CIMA-Accountant/MJM-Accounting-Ltd-10175/'
p373
aS'http://www.cimaglobal.com/About-us/Find-a-CIMA-Accountant/Rimell-Partners-Ltd-9373/'
p374
aS'http://www.cimaglobal.com/About-us/Find-a-CIMA-Accountant/AIMS-William-Robertson-5643/'
p375
aS'http://www.cimaglobal.com/About-us/Find-a-CIMA-Accountant/Footprints-Accountancy-Ltd-10357/'
p376
aS'http://www.cimaglobal.com/About-us/Find-a-CIMA-Accountant/Newton--Co-9631/'
p377
aS'http://www.cimaglobal.com/About-us/Find-a-CIMA-Accountant/Michael-Robson-10056/'
p378
aS'http://www.cimaglobal.com/About-us/Find-a-CIMA-Accountant/Interim-Financial--Commercial-Management-Ltd-5645/'
p379
aS'http://www.cimaglobal.com/About-us/Find-a-CIMA-Accountant/Small-Business-Support-11569/'
p380
aS'http://www.cimaglobal.com/About-us/Find-a-CIMA-Accountant/Schoolgate-Accounting-Services-12603/'
p381
aS'http://www.cimaglobal.com/About-us/Find-a-CIMA-Accountant/Horizon-Accounts-9812/'
p382
aS'http://www.cimaglobal.com/About-us/Find-a-CIMA-Accountant/Suttongate-Consulting-Ltd-9931/'
p383
aS'http://www.cimaglobal.com/About-us/Find-a-CIMA-Accountant/Alchemy-Financial-Solutions-9377/'
p384
aS'http://www.cimaglobal.com/About-us/Find-a-CIMA-Accountant/Aaron-Partners-12247/'
p385
aS'http://www.cimaglobal.com/About-us/Find-a-CIMA-Accountant/Cousins-Brett-LLP-12984/'
p386
aS'http://www.cimaglobal.com/About-us/Find-a-CIMA-Accountant/Anthony-Sheldon---Aims-Accountants-For-Business-10657/'
p387
aS'http://www.cimaglobal.com/About-us/Find-a-CIMA-Accountant/ShelleyHolmes-Accountancy-Limited-12351/'
p388
aS'http://www.cimaglobal.com/About-us/Find-a-CIMA-Accountant/Steve-Shinn-ACMA-ta-AIMS-10122/'
p389
aS'http://www.cimaglobal.com/About-us/Find-a-CIMA-Accountant/1st-Class-Accountants-Limited-11304/'
p390
aS'http://www.cimaglobal.com/About-us/Find-a-CIMA-Accountant/Aspire-Finance-12343/'
p391
aS'http://www.cimaglobal.com/About-us/Find-a-CIMA-Accountant/Sound-Accounting-Services-Ltd-5588/'
p392
aS'http://www.cimaglobal.com/About-us/Find-a-CIMA-Accountant/Alliance-Accountants-Ltd--and-Hale-Jackson-Knight-Ltd-13466/'
p393
aS'http://www.cimaglobal.com/About-us/Find-a-CIMA-Accountant/McMullan--Co-10920/'
p394
aS'http://www.cimaglobal.com/About-us/Find-a-CIMA-Accountant/Kbs-corporate-sales-ltd-11879/'
p395
aS'http://www.cimaglobal.com/About-us/Find-a-CIMA-Accountant/MG-Mellor-Accountancy-Services-12748/'
p396
aS'http://www.cimaglobal.com/About-us/Find-a-CIMA-Accountant/The-FD-Centre-Limited-10727/'
p397
aS'http://www.cimaglobal.com/About-us/Find-a-CIMA-Accountant/RYDE-BUSINESS-SERVICES-11428/'
p398
aS'http://www.cimaglobal.com/About-us/Find-a-CIMA-Accountant/Abacus-246-Limited-10643/'
p399
aS'http://www.cimaglobal.com/About-us/Find-a-CIMA-Accountant/Joanna-Moore-13597/'
p400
aS'http://www.cimaglobal.com/About-us/Find-a-CIMA-Accountant/GFM-Accounting-Ltd-Graham-Moores-5597/'
p401
aS'http://www.cimaglobal.com/About-us/Find-a-CIMA-Accountant/Black-Rose-Solutions-Ltd-12986/'
p402
aS'http://www.cimaglobal.com/About-us/Find-a-CIMA-Accountant/Land--Scales-Ltd-Maria-Land-5561/'
p403
aS'http://www.cimaglobal.com/About-us/Find-a-CIMA-Accountant/South-West-Finance-and-Accounting-Ltd-12778/'
p404
aS'http://www.cimaglobal.com/About-us/Find-a-CIMA-Accountant/Scribble-Business-Services-Ltd-10160/'
p405
aS'http://www.cimaglobal.com/About-us/Find-a-CIMA-Accountant/Tax-Assist-Accountants-9617/'
p406
aS'http://www.cimaglobal.com/About-us/Find-a-CIMA-Accountant/Lilley--Co-UK-Limited-12869/'
p407
aS'http://www.cimaglobal.com/About-us/Find-a-CIMA-Accountant/Syntiro-Limited-10161/'
p408
aS'http://www.cimaglobal.com/About-us/Find-a-CIMA-Accountant/CL-Accountancy-12472/'
p409
aS'http://www.cimaglobal.com/About-us/Find-a-CIMA-Accountant/Certified-Associates-10838/'
p410
aS'http://www.cimaglobal.com/About-us/Find-a-CIMA-Accountant/JML-Business-Services-Limited-10333/'
p411
aS'http://www.cimaglobal.com/About-us/Find-a-CIMA-Accountant/Interim-Finance-Assistance-Ltd-12811/'
p412
aS'http://www.cimaglobal.com/About-us/Find-a-CIMA-Accountant/UkMarshall-Ltd-12226/'
p413
aS'http://www.cimaglobal.com/About-us/Find-a-CIMA-Accountant/Senjeff-Consulting-Ltd-TA-Senjef-Accountants-12227/'
p414
aS'http://www.cimaglobal.com/About-us/Find-a-CIMA-Accountant/Nick-Mather---Aims-Accountants-for-Business-13883/'
p415
aS'http://www.cimaglobal.com/About-us/Find-a-CIMA-Accountant/Sollertia-Ltd-9809/'
p416
aS'http://www.cimaglobal.com/About-us/Find-a-CIMA-Accountant/MJS-Business-Management-Services-12442/'
p417
aS'http://www.cimaglobal.com/About-us/Find-a-CIMA-Accountant/Martyn-Slack-5666/'
p418
aS'http://www.cimaglobal.com/About-us/Find-a-CIMA-Accountant/PMS-Accounting-Limited-11762/'
p419
aS'http://www.cimaglobal.com/About-us/Find-a-CIMA-Accountant/K-M-B-Solutions-Ltd-12281/'
p420
aS'http://www.cimaglobal.com/About-us/Find-a-CIMA-Accountant/Taxfactor-Accounting-Ltd-12987/'
p421
aS'http://www.cimaglobal.com/About-us/Find-a-CIMA-Accountant/Spencer-Accounting-Services-Limited-9620/'
p422
aS'http://www.cimaglobal.com/About-us/Find-a-CIMA-Accountant/Sritharan-Co-Accountants-10511/'
p423
aS'http://www.cimaglobal.com/About-us/Find-a-CIMA-Accountant/PS-Accountancy-Ltd-5678/'
p424
aS'http://www.cimaglobal.com/About-us/Find-a-CIMA-Accountant/CAS-Financial-Solutions-12354/'
p425
aS'http://www.cimaglobal.com/About-us/Find-a-CIMA-Accountant/PFS-Business-Services-Ltd-13867/'
p426
aS'http://www.cimaglobal.com/About-us/Find-a-CIMA-Accountant/AJS-Business-Services-11889/'
p427
aS'http://www.cimaglobal.com/About-us/Find-a-CIMA-Accountant/Happy-Accounts-Limited-12606/'
p428
aS'http://www.cimaglobal.com/About-us/Find-a-CIMA-Accountant/Thava--Co-5691/'
p429
aS'http://www.cimaglobal.com/About-us/Find-a-CIMA-Accountant/Forbes-Young-Accountancy-Ltd-10893/'
p430
aS'http://www.cimaglobal.com/About-us/Find-a-CIMA-Accountant/TaxAssist-Accountants-10232/'
p431
aS'http://www.cimaglobal.com/About-us/Find-a-CIMA-Accountant/Accountibbleity-9633/'
p432
aS'http://www.cimaglobal.com/About-us/Find-a-CIMA-Accountant/Avalon-Management-Accounting-Limited-5702/'
p433
aS'http://www.cimaglobal.com/About-us/Find-a-CIMA-Accountant/Woodlake-Business-Solutions-Ltd-10829/'
p434
aS'http://www.cimaglobal.com/About-us/Find-a-CIMA-Accountant/Plan-Target-Partnership-Limited-5709/'
p435
aS'http://www.cimaglobal.com/About-us/Find-a-CIMA-Accountant/MW-Accounting-Services-Ltd-9922/'
p436
aS'http://www.cimaglobal.com/About-us/Find-a-CIMA-Accountant/CMW-Business--Accounting-Solutions-Ltd-12087/'
p437
aS'http://www.cimaglobal.com/About-us/Find-a-CIMA-Accountant/Mint-Accounting-5712/'
p438
aS'http://www.cimaglobal.com/About-us/Find-a-CIMA-Accountant/John--A-Walker-Accountancy-10666/'
p439
aS'http://www.cimaglobal.com/About-us/Find-a-CIMA-Accountant/Baddow-Accountancy-12283/'
p440
aS'http://www.cimaglobal.com/About-us/Find-a-CIMA-Accountant/Darmody-Ltd-12487/'
p441
aS'http://www.cimaglobal.com/About-us/Find-a-CIMA-Accountant/Mike-Ward-Associates-Ltd-9801/'
p442
aS'http://www.cimaglobal.com/About-us/Find-a-CIMA-Accountant/DT-Watson-Limited-10076/'
p443
aS'http://www.cimaglobal.com/About-us/Find-a-CIMA-Accountant/Accountancy-Services-for-Business-5719/'
p444
aS'http://www.cimaglobal.com/About-us/Find-a-CIMA-Accountant/Michael-Watson-Accountancy-11892/'
p445
aS'http://www.cimaglobal.com/About-us/Find-a-CIMA-Accountant/Stujam-Financial-Services-Ltd-13699/'
p446
aS'http://www.cimaglobal.com/About-us/Find-a-CIMA-Accountant/Not-Just-Numbers-Ltd-9381/'
p447
aS'http://www.cimaglobal.com/About-us/Find-a-CIMA-Accountant/White-Advisory-Ltd-12358/'
p448
aS'http://www.cimaglobal.com/About-us/Find-a-CIMA-Accountant/APH-Accountants-Ltd-9802/'
p449
aS'http://www.cimaglobal.com/About-us/Find-a-CIMA-Accountant/Ascot-Drummond-UK-Ltd-9503/'
p450
aS'http://www.cimaglobal.com/About-us/Find-a-CIMA-Accountant/RW-Accountancy-Services-10078/'
p451
aS'http://www.cimaglobal.com/About-us/Find-a-CIMA-Accountant/Beyond-Profit-UK-13740/'
p452
aS'http://www.cimaglobal.com/About-us/Find-a-CIMA-Accountant/Froxmere-Consulting-Ltd-10671/'
p453
aS'http://www.cimaglobal.com/About-us/Find-a-CIMA-Accountant/Alison-Williamson-10383/'
p454
aS'http://www.cimaglobal.com/About-us/Find-a-CIMA-Accountant/Sigmatoe-Ltd-9803/'
p455
aS'http://www.cimaglobal.com/About-us/Find-a-CIMA-Accountant/Tina-Woolley-trading-as-AIMS-12286/'
p456
aS'http://www.cimaglobal.com/About-us/Find-a-CIMA-Accountant/David-Wootton--Co-11583/'
p457
aS'http://www.cimaglobal.com/About-us/Find-a-CIMA-Accountant/CJ-Accountancy-Services-13741/'
p458
aS'http://www.cimaglobal.com/About-us/Find-a-CIMA-Accountant/Debit-Credit-Solutions-Ltd-13156/'
p459
aS'http://www.cimaglobal.com/About-us/Find-a-CIMA-Accountant/AZ-Accountants--Tax-Advisors-10082/'
p460
aS'http://www.cimaglobal.com/About-us/Find-a-CIMA-Accountant/Agate-Associates-5376/'
p461
aS'http://www.cimaglobal.com/About-us/Find-a-CIMA-Accountant/Sceptre-Consult-Ltd-10411/'
p462
aS'http://www.cimaglobal.com/About-us/Find-a-CIMA-Accountant/Advantax-Accountants-10586/'
p463
aS'http://www.cimaglobal.com/About-us/Find-a-CIMA-Accountant/Simply-Elite-Accounting-Ltd-12972/'
p464
aS'http://www.cimaglobal.com/About-us/Find-a-CIMA-Accountant/Alexis-Accounting-Ltd-10247/'
p465
aS'http://www.cimaglobal.com/About-us/Find-a-CIMA-Accountant/SJ-Accountancy-Services-9997/'
p466
aS'http://www.cimaglobal.com/About-us/Find-a-CIMA-Accountant/Harvey-Winning--Co-5381/'
p467
aS'http://www.cimaglobal.com/About-us/Find-a-CIMA-Accountant/TAG-Tax-Limited-5382/'
p468
aS'http://www.cimaglobal.com/About-us/Find-a-CIMA-Accountant/Ally-Boatman-Collins-Accountants-5383/'
p469
aS'http://www.cimaglobal.com/About-us/Find-a-CIMA-Accountant/Oaklea-Financial-Management-Limited-11523/'
p470
aS'http://www.cimaglobal.com/About-us/Find-a-CIMA-Accountant/VA-Finance-Ltd-13582/'
p471
aS'http://www.cimaglobal.com/About-us/Find-a-CIMA-Accountant/Pyramid-Point-Limited-12380/'
p472
aS'http://www.cimaglobal.com/About-us/Find-a-CIMA-Accountant/Delorse-Consulting-Limited-12484/'
p473
aS'http://www.cimaglobal.com/About-us/Find-a-CIMA-Accountant/Premier-Financial-Services-Limited-10249/'
p474
aS'http://www.cimaglobal.com/About-us/Find-a-CIMA-Accountant/Pi-Partners-Ltd-5386/'
p475
aS'http://www.cimaglobal.com/About-us/Find-a-CIMA-Accountant/Three-Point-One-Limited-10590/'
p476
aS'http://www.cimaglobal.com/About-us/Find-a-CIMA-Accountant/The-Accounts-Centre-9585/'
p477
aS'http://www.cimaglobal.com/About-us/Find-a-CIMA-Accountant/Predictivity-Limited-TA-Grant-Attwood-Accounting-13583/'
p478
aS'http://www.cimaglobal.com/About-us/Find-a-CIMA-Accountant/Adam-Accounts-12594/'
p479
aS'http://www.cimaglobal.com/About-us/Find-a-CIMA-Accountant/Snapdragon-Accounting-Ltd-12544/'
p480
aS'http://www.cimaglobal.com/About-us/Find-a-CIMA-Accountant/Kabru-Business-Solutions-Ltd-11527/'
p481
aS'http://www.cimaglobal.com/About-us/Find-a-CIMA-Accountant/AVL-Accounting-Services-Ltd-ta-BakerPringle-5393/'
p482
aS'http://www.cimaglobal.com/About-us/Find-a-CIMA-Accountant/BCB-Partnership-13787/'
p483
aS'http://www.cimaglobal.com/About-us/Find-a-CIMA-Accountant/Doyles-CABC-Limited-ta-Doyles--Co-13634/'
p484
aS'http://www.cimaglobal.com/About-us/Find-a-CIMA-Accountant/Central-Accounting-Ltd-10018/'
p485
aS'http://www.cimaglobal.com/About-us/Find-a-CIMA-Accountant/West-Coast-Accountancy-Ltd-10857/'
p486
aS'http://www.cimaglobal.com/About-us/Find-a-CIMA-Accountant/Management-Solutions-10484/'
p487
aS'http://www.cimaglobal.com/About-us/Find-a-CIMA-Accountant/Andy-Eagles-ta-AIMs-Accountants-for-Business-10020/'
p488
aS'http://www.cimaglobal.com/About-us/Find-a-CIMA-Accountant/4-Heatons-Consulting-Ltd-13704/'
p489
aS'http://www.cimaglobal.com/About-us/Find-a-CIMA-Accountant/KE-Ltd-5486/'
p490
aS'http://www.cimaglobal.com/About-us/Find-a-CIMA-Accountant/Strong-Tower-Accounting-Ltd-11912/'
p491
aS'http://www.cimaglobal.com/About-us/Find-a-CIMA-Accountant/David-J-Evans-Ltd-9535/'
p492
aS'http://www.cimaglobal.com/About-us/Find-a-CIMA-Accountant/REACT-Accountancy-10974/'
p493
aS'http://www.cimaglobal.com/About-us/Find-a-CIMA-Accountant/Price-Accountancy-Services-12624/'
p494
aS'http://www.cimaglobal.com/About-us/Find-a-CIMA-Accountant/Fincham--Co--Ltd-5497/'
p495
aS'http://www.cimaglobal.com/About-us/Find-a-CIMA-Accountant/M-Fisher-Accountancy-Services-11225/'
p496
aS'http://www.cimaglobal.com/About-us/Find-a-CIMA-Accountant/Kay-Forster-Ltd-9356/'
p497
aS'http://www.cimaglobal.com/About-us/Find-a-CIMA-Accountant/AIMS-Accountants-For-Business-10392/'
p498
aS'http://www.cimaglobal.com/About-us/Find-a-CIMA-Accountant/8020-Business--Finance-Solutions-12804/'
p499
aS'http://www.cimaglobal.com/About-us/Find-a-CIMA-Accountant/R-E-Froud--Associates-Ltd-10548/'
p500
aS'http://www.cimaglobal.com/About-us/Find-a-CIMA-Accountant/Allford-Bryant-Business-Advisors-Ltd-10133/'
p501
aS'http://www.cimaglobal.com/About-us/Find-a-CIMA-Accountant/JSC-ACCOUNTANCY-13647/'
p502
aS'http://www.cimaglobal.com/About-us/Find-a-CIMA-Accountant/White-Cloud-Accountancy-12919/'
p503
aS'http://www.cimaglobal.com/About-us/Find-a-CIMA-Accountant/ACV-Accountancy-Services-Limited-10603/'
p504
aS'http://www.cimaglobal.com/About-us/Find-a-CIMA-Accountant/LM-Associates-5442/'
p505
aS'http://www.cimaglobal.com/About-us/Find-a-CIMA-Accountant/Arch-Accounts--Payroll-Services-Limited-12799/'
p506
aS'http://www.cimaglobal.com/About-us/Find-a-CIMA-Accountant/S-Chaudary--Co-Ltd-11397/'
p507
aS'http://www.cimaglobal.com/About-us/Find-a-CIMA-Accountant/Tan-Business-Solutions-Limited-12733/'
p508
aS'http://www.cimaglobal.com/About-us/Find-a-CIMA-Accountant/Andrew-Clarke-13058/'
p509
aS'http://www.cimaglobal.com/About-us/Find-a-CIMA-Accountant/Essty-Accountants-10293/'
p510
aS'http://www.cimaglobal.com/About-us/Find-a-CIMA-Accountant/Abakus-Financial-Support-Ltd-10882/'
p511
aS'http://www.cimaglobal.com/About-us/Find-a-CIMA-Accountant/Magic-Accountancy-Services-Ltd-11538/'
p512
aS'http://www.cimaglobal.com/About-us/Find-a-CIMA-Accountant/Highfield-Accounting-Ltd-12513/'
p513
aS'http://www.cimaglobal.com/About-us/Find-a-CIMA-Accountant/In-the-black-ltd-12985/'
p514
aS'http://www.cimaglobal.com/About-us/Find-a-CIMA-Accountant/Shaper-Accountants-ltd-12259/'
p515
aS'http://www.cimaglobal.com/About-us/Find-a-CIMA-Accountant/Field--Co-LLP-10706/'
p516
aS'http://www.cimaglobal.com/About-us/Find-a-CIMA-Accountant/Kings-Oak-Accountancy-Services-Ltd-10707/'
p517
aS'http://www.cimaglobal.com/About-us/Find-a-CIMA-Accountant/Accounting-4-Fitness-10007/'
p518
aS'http://www.cimaglobal.com/About-us/Find-a-CIMA-Accountant/The-Number-Shop-Glos-Ltd-10251/'
p519
aS'http://www.cimaglobal.com/About-us/Find-a-CIMA-Accountant/Business-Accounting-Services-9685/'
p520
aS'http://www.cimaglobal.com/About-us/Find-a-CIMA-Accountant/Accountalitics-Ltd-13713/'
p521
aS'http://www.cimaglobal.com/About-us/Find-a-CIMA-Accountant/Corporate-Solutions-Midlands-Ltd-5465/'
p522
aS'http://www.cimaglobal.com/About-us/Find-a-CIMA-Accountant/LD-ADVERTISING-FINANCE-CONSULTANCY-LTD-13861/'
p523
aS'http://www.cimaglobal.com/About-us/Find-a-CIMA-Accountant/MD-Accountancy-Services-12469/'
p524
aS'http://www.cimaglobal.com/About-us/Find-a-CIMA-Accountant/Andrew-Delbridge-Ltd-13493/'
p525
aS'http://www.cimaglobal.com/About-us/Find-a-CIMA-Accountant/Counterculture-Partnership-LLP-11866/'
p526
aS'http://www.cimaglobal.com/About-us/Find-a-CIMA-Accountant/MOHAMMAD-DHAMI-TA-MRD-ACCOUNTANTS-10409/'
p527
aS'http://www.cimaglobal.com/About-us/Find-a-CIMA-Accountant/Taxassist-Accountants-5474/'
p528
aS'http://www.cimaglobal.com/About-us/Find-a-CIMA-Accountant/Forbes-Young-Accountancy-Ltd-5406/'
p529
aS'http://www.cimaglobal.com/About-us/Find-a-CIMA-Accountant/Julie-Black-Accountancy-Ltd-TA-AIMS-11613/'
p530
aS'http://www.cimaglobal.com/About-us/Find-a-CIMA-Accountant/MHR-Consultancy-Limited-10455/'
p531
aS'http://www.cimaglobal.com/About-us/Find-a-CIMA-Accountant/Inspire-Accounting-Solutions-Limited-10732/'
p532
aS'http://www.cimaglobal.com/About-us/Find-a-CIMA-Accountant/Paul-Bloor-Aims-Accountants-10211/'
p533
aS'http://www.cimaglobal.com/About-us/Find-a-CIMA-Accountant/Ezra-and-Co-Chartered-Management-Accountants-13702/'
p534
aS'http://www.cimaglobal.com/About-us/Find-a-CIMA-Accountant/Sky-Blue-Advantage-12979/'
p535
aS'http://www.cimaglobal.com/About-us/Find-a-CIMA-Accountant/summit-assist-llp-9672/'
p536
aS'http://www.cimaglobal.com/About-us/Find-a-CIMA-Accountant/MSB-ACCOUNTING-LTD-10197/'
p537
aS'http://www.cimaglobal.com/About-us/Find-a-CIMA-Accountant/AIMS---Marc-Brotherton-TA-AIMS-13492/'
p538
aS'http://www.cimaglobal.com/About-us/Find-a-CIMA-Accountant/JAKB-Accounting--Business-Services-Ltd-12203/'
p539
aS'http://www.cimaglobal.com/About-us/Find-a-CIMA-Accountant/Stoneygate-Accountancy-Ltd-5428/'
p540
aS'http://www.cimaglobal.com/About-us/Find-a-CIMA-Accountant/Bridgewater-Accounting-Services-10457/'
p541
aS'http://www.cimaglobal.com/About-us/Find-a-CIMA-Accountant/Aven-Accounting-10553/'
p542
aS'http://www.cimaglobal.com/About-us/Find-a-CIMA-Accountant/Oxwich-Training--Consultancy-9528/'
p543
aS'http://www.cimaglobal.com/About-us/Find-a-CIMA-Accountant/Mawney-Accountancy-13242/'
p544
aS'http://www.cimaglobal.com/About-us/Find-a-CIMA-Accountant/Abdul-O-Lemboye-and-Co-5567/'
p545
aS'http://www.cimaglobal.com/About-us/Find-a-CIMA-Accountant/Lite-Tax-Ltd-10273/'
p546
aS'http://www.cimaglobal.com/About-us/Find-a-CIMA-Accountant/JL-Accountancy-11919/'
p547
aS'http://www.cimaglobal.com/About-us/Find-a-CIMA-Accountant/Zelo-Group-13780/'
p548
aS'http://www.cimaglobal.com/About-us/Find-a-CIMA-Accountant/JGL-Accounting-Ltd-ta-AIMS-10039/'
p549
aS'http://www.cimaglobal.com/About-us/Find-a-CIMA-Accountant/TaxAssist-Accountants-Nigel-Lomax-5574/'
p550
aS'http://www.cimaglobal.com/About-us/Find-a-CIMA-Accountant/Independent-Contractor-Services-Limited-ICS-12073/'
p551
aS'http://www.cimaglobal.com/About-us/Find-a-CIMA-Accountant/Dan-Accountancy-LTD-13150/'
p552
aS'http://www.cimaglobal.com/About-us/Find-a-CIMA-Accountant/K--P-Associates-Ltd-12861/'
p553
aS'http://www.cimaglobal.com/About-us/Find-a-CIMA-Accountant/GEM-Accountancy-13594/'
p554
aS'http://www.cimaglobal.com/About-us/Find-a-CIMA-Accountant/Saira-Majid-Accountants-Limited-10041/'
p555
aS'http://www.cimaglobal.com/About-us/Find-a-CIMA-Accountant/Finance--Accounting-for-Business-9483/'
p556
aS'http://www.cimaglobal.com/About-us/Find-a-CIMA-Accountant/Nick-Makinson-ACMA-9537/'
p557
aS'http://www.cimaglobal.com/About-us/Find-a-CIMA-Accountant/ACS-Accounting-10501/'
p558
aS'http://www.cimaglobal.com/About-us/Find-a-CIMA-Accountant/JRM-Accountancy-12747/'
p559
aS'http://www.cimaglobal.com/About-us/Find-a-CIMA-Accountant/EPM-Projects-Limited-10283/'
p560
aS'http://www.cimaglobal.com/About-us/Find-a-CIMA-Accountant/COUNT-Perthshire-Limited-12292/'
p561
aS'http://www.cimaglobal.com/About-us/Find-a-CIMA-Accountant/WM-Accounting-Solutions-Limited-10839/'
p562
aS'http://www.cimaglobal.com/About-us/Find-a-CIMA-Accountant/Keith-May-TA-Keith-May-Accounting-Services-13793/'
p563
aS'http://www.cimaglobal.com/About-us/Find-a-CIMA-Accountant/Almond-Valley-Accounting-Limited-13871/'
p564
aS'http://www.cimaglobal.com/About-us/Find-a-CIMA-Accountant/Gardner--Co-Accountants-Ltd-9779/'
p565
aS'http://www.cimaglobal.com/About-us/Find-a-CIMA-Accountant/Aucuba-Ltd-10201/'
p566
aS'http://www.cimaglobal.com/About-us/Find-a-CIMA-Accountant/Insight-Accountancy-Solutions-Ltd-13657/'
p567
aS'http://www.cimaglobal.com/About-us/Find-a-CIMA-Accountant/Compact-Services-Solutions-Ltd-10026/'
p568
aS'http://www.cimaglobal.com/About-us/Find-a-CIMA-Accountant/City-Business--Accountancy-Services-Ltd-10547/'
p569
aS'http://www.cimaglobal.com/About-us/Find-a-CIMA-Accountant/Tech--the-Beancounters-13589/'
p570
aS'http://www.cimaglobal.com/About-us/Find-a-CIMA-Accountant/JLSN-Accountants-and-Business-Advisors-12429/'
p571
aS'http://www.cimaglobal.com/About-us/Find-a-CIMA-Accountant/Your-Finance-Partner-Ltd-12974/'
p572
aS'http://www.cimaglobal.com/About-us/Find-a-CIMA-Accountant/ABC-Accounting-9606/'
p573
aS'http://www.cimaglobal.com/About-us/Find-a-CIMA-Accountant/Susan-Grobbelaar-TA-Straight-Talking-Services-Limited-13059/'
p574
aS'http://www.cimaglobal.com/About-us/Find-a-CIMA-Accountant/Helen-Jane-Guest-Accounting-10977/'
p575
aS'http://www.cimaglobal.com/About-us/Find-a-CIMA-Accountant/Smart-Accounts--Tax-Ltd-13200/'
p576
aS'http://www.cimaglobal.com/About-us/Find-a-CIMA-Accountant/Paul-Hammett-10029/'
p577
aS'http://www.cimaglobal.com/About-us/Find-a-CIMA-Accountant/Venn-Accounts-13856/'
p578
aS'http://www.cimaglobal.com/About-us/Find-a-CIMA-Accountant/Aims-Accountants-For-Business---Alison-Robinson-10827/'
p579
aS'http://www.cimaglobal.com/About-us/Find-a-CIMA-Accountant/Blaby-Accounting-Services-13773/'
p580
aS'http://www.cimaglobal.com/About-us/Find-a-CIMA-Accountant/Robinson-Ward-Accountants-9600/'
p581
aS'http://www.cimaglobal.com/About-us/Find-a-CIMA-Accountant/RES-Accountants-13095/'
p582
aS'http://www.cimaglobal.com/About-us/Find-a-CIMA-Accountant/Linton-Park-Administrative-Services-Ltd-9609/'
p583
aS'http://www.cimaglobal.com/About-us/Find-a-CIMA-Accountant/AGS-Ltd-13140/'
p584
aS'http://www.cimaglobal.com/About-us/Find-a-CIMA-Accountant/Mark-Russon---Trading-as-AIMS-Accountants-for-Business-13440/'
p585
aS'http://www.cimaglobal.com/About-us/Find-a-CIMA-Accountant/Excellent-Finances-Ltd-10259/'
p586
aS'http://www.cimaglobal.com/About-us/Find-a-CIMA-Accountant/Integral-Accountants-and-Business-Advisors-13501/'
p587
aS'http://www.cimaglobal.com/About-us/Find-a-CIMA-Accountant/TaxAssist-Accountants-Edgbaston-13023/'
p588
aS'http://www.cimaglobal.com/About-us/Find-a-CIMA-Accountant/D--E-Accountancy-Ltd-9450/'
p589
aS'http://www.cimaglobal.com/About-us/Find-a-CIMA-Accountant/HUDSON-MAYBACH-LLP-13486/'
p590
aS'http://www.cimaglobal.com/About-us/Find-a-CIMA-Accountant/APS-Solutions-UK-Ltd-11467/'
p591
aS'http://www.cimaglobal.com/About-us/Find-a-CIMA-Accountant/S-Square-Accountants-Ltd-9930/'
p592
aS'http://www.cimaglobal.com/About-us/Find-a-CIMA-Accountant/JGS-Associates-Scotland-Ltd-9451/'
p593
aS'http://www.cimaglobal.com/About-us/Find-a-CIMA-Accountant/B-P-SHAH--CO-5660/'
p594
aS'http://www.cimaglobal.com/About-us/Find-a-CIMA-Accountant/Shrenik-Shah-13487/'
p595
aS'http://www.cimaglobal.com/About-us/Find-a-CIMA-Accountant/US-Business-Advisers-12479/'
p596
aS'http://www.cimaglobal.com/About-us/Find-a-CIMA-Accountant/ASMAT--CO-10061/'
p597
aS'http://www.cimaglobal.com/About-us/Find-a-CIMA-Accountant/R-Sharp-Accountancy-Services-Limited-5661/'
p598
aS'http://www.cimaglobal.com/About-us/Find-a-CIMA-Accountant/Burnett-Consulting-Services-Ltd-10062/'
p599
aS'http://www.cimaglobal.com/About-us/Find-a-CIMA-Accountant/Northumbrian-Accounting-Ltd-ta-Aims-10121/'
p600
aS'http://www.cimaglobal.com/About-us/Find-a-CIMA-Accountant/Hugh-Simpson-ACMA-Chartered-Management-Accountant-10123/'
p601
aS'http://www.cimaglobal.com/About-us/Find-a-CIMA-Accountant/A-B-Accountancy-Ltd-10734/'
p602
aS'http://www.cimaglobal.com/About-us/Find-a-CIMA-Accountant/Buckman-Finance-Associates-Ltd-10473/'
p603
aS'http://www.cimaglobal.com/About-us/Find-a-CIMA-Accountant/My-Temp-FD-13890/'
p604
aS'http://www.cimaglobal.com/About-us/Find-a-CIMA-Accountant/Xpwconsulting-Limited-12108/'
p605
aS'http://www.cimaglobal.com/About-us/Find-a-CIMA-Accountant/Deanel-Ltd-12595/'
p606
aS'http://www.cimaglobal.com/About-us/Find-a-CIMA-Accountant/Plan-it-Finance-Ltd-10265/'
p607
aS'http://www.cimaglobal.com/About-us/Find-a-CIMA-Accountant/Optima-12424/'
p608
aS'http://www.cimaglobal.com/About-us/Find-a-CIMA-Accountant/Butt--Co-Accountants-Ltd-5434/'
p609
aS'http://www.cimaglobal.com/About-us/Find-a-CIMA-Accountant/Aims-Accountants-10089/'
p610
aS'http://www.cimaglobal.com/About-us/Find-a-CIMA-Accountant/William-Chi-Ho-Chan--Co-5439/'
p611
aS'http://www.cimaglobal.com/About-us/Find-a-CIMA-Accountant/Norman-Chant-Accountancy-Services-5440/'
p612
aS'http://www.cimaglobal.com/About-us/Find-a-CIMA-Accountant/First-Accountancy-5441/'
p613
aS'http://www.cimaglobal.com/About-us/Find-a-CIMA-Accountant/Whitesails-Associates-12060/'
p614
aS'http://www.cimaglobal.com/About-us/Find-a-CIMA-Accountant/Distant-Shores-Ltd-10419/'
p615
aS'http://www.cimaglobal.com/About-us/Find-a-CIMA-Accountant/Chiltern-Accountants-11221/'
p616
aS'http://www.cimaglobal.com/About-us/Find-a-CIMA-Accountant/Your-Accounts-Team-Limited-10605/'
p617
aS'http://www.cimaglobal.com/About-us/Find-a-CIMA-Accountant/Harleigh-Accountancy-10268/'
p618
aS'http://www.cimaglobal.com/About-us/Find-a-CIMA-Accountant/Bar-Tax-Services-Ltd-9684/'
p619
aS'http://www.cimaglobal.com/About-us/Find-a-CIMA-Accountant/NMC-Accountancy-Ltd-10726/'
p620
aS'http://www.cimaglobal.com/About-us/Find-a-CIMA-Accountant/Mlc-accountancy-services-10091/'
p621
aS'http://www.cimaglobal.com/About-us/Find-a-CIMA-Accountant/LAC-Accounting-Limited-9745/'
p622
aS'http://www.cimaglobal.com/About-us/Find-a-CIMA-Accountant/Coles-Accountants-Limited-10478/'
p623
aS'http://www.cimaglobal.com/About-us/Find-a-CIMA-Accountant/Certax-Accounting-Birmingham-South-Ltd-12836/'
p624
aS'http://www.cimaglobal.com/About-us/Find-a-CIMA-Accountant/Cove-FD-Associates-Ltd-12734/'
p625
aS'http://www.cimaglobal.com/About-us/Find-a-CIMA-Accountant/Colvin-Accounting-Limited-13676/'
p626
aS'http://www.cimaglobal.com/About-us/Find-a-CIMA-Accountant/Conkey--Co-5452/'
p627
aS'http://www.cimaglobal.com/About-us/Find-a-CIMA-Accountant/Henley-Accountancy-Services-Ltd-13169/'
p628
aS'http://www.cimaglobal.com/About-us/Find-a-CIMA-Accountant/Custom-Enterprises-Limited-5625/'
p629
aS'http://www.cimaglobal.com/About-us/Find-a-CIMA-Accountant/TBA-Solutions-Ltd-Samantha-Paveley-9649/'
p630
aS'http://www.cimaglobal.com/About-us/Find-a-CIMA-Accountant/JRP-Accountancy-Ltd-11241/'
p631
aS'http://www.cimaglobal.com/About-us/Find-a-CIMA-Accountant/NP-Business-Services-12349/'
p632
aS'http://www.cimaglobal.com/About-us/Find-a-CIMA-Accountant/Goldfish-Accounting-Solutions-Ltd-10349/'
p633
aS'http://www.cimaglobal.com/About-us/Find-a-CIMA-Accountant/Oakname-Services-Ltd-5627/'
p634
aS'http://www.cimaglobal.com/About-us/Find-a-CIMA-Accountant/Global-Management-Consultants-Ltd-11429/'
p635
aS'http://www.cimaglobal.com/About-us/Find-a-CIMA-Accountant/Tech-City-Finance-Limited-13772/'
p636
aS'http://www.cimaglobal.com/About-us/Find-a-CIMA-Accountant/Integrated-Solutions-10559/'
p637
aS'http://www.cimaglobal.com/About-us/Find-a-CIMA-Accountant/Blue-Arc-Consulting-Ltd-11886/'
p638
aS'http://www.cimaglobal.com/About-us/Find-a-CIMA-Accountant/Smart-Accounts-Ltd-12277/'
p639
aS'http://www.cimaglobal.com/About-us/Find-a-CIMA-Accountant/Affordable-Accounts-5631/'
p640
aS'http://www.cimaglobal.com/About-us/Find-a-CIMA-Accountant/Brian-Pinder-Ayres-10115/'
p641
aS'http://www.cimaglobal.com/About-us/Find-a-CIMA-Accountant/Your-Accounts-Dept-Limited-13651/'
p642
aS'http://www.cimaglobal.com/About-us/Find-a-CIMA-Accountant/Pollard--Co-Accounting-Services-Ltd-9831/'
p643
aS'http://www.cimaglobal.com/About-us/Find-a-CIMA-Accountant/DP-Accounting-Ltd-10543/'
p644
aS'http://www.cimaglobal.com/About-us/Find-a-CIMA-Accountant/Virtual-Accounting--Taxation-Services-Ltd-10843/'
p645
aS'http://www.cimaglobal.com/About-us/Find-a-CIMA-Accountant/Skye-Accountancy-Services-Ltd-12078/'
p646
aS'http://www.cimaglobal.com/About-us/Find-a-CIMA-Accountant/Probox-Accounting-13782/'
p647
aS'http://www.cimaglobal.com/About-us/Find-a-CIMA-Accountant/JNP-Consultancy-Ltd-11926/'
p648
aS'http://www.cimaglobal.com/About-us/Find-a-CIMA-Accountant/EJP-Accounting-Services-10353/'
p649
aS'http://www.cimaglobal.com/About-us/Find-a-CIMA-Accountant/James-Pyne-11566/'
p650
aS'http://www.cimaglobal.com/About-us/Find-a-CIMA-Accountant/Stephen-Reat-ta-AIMS---Accountants-for-Business-10181/'
p651
aS'http://www.cimaglobal.com/About-us/Find-a-CIMA-Accountant/Franklin-Partners-12293/'
p652
aS'http://www.cimaglobal.com/About-us/Find-a-CIMA-Accountant/AlbertWatsonAccountants-10830/'
p653
aS'http://www.cimaglobal.com/About-us/Find-a-CIMA-Accountant/BlueBox-Thinking-Ltd-9641/'
p654
aS'http://www.cimaglobal.com/About-us/Find-a-CIMA-Accountant/Aston-Black-Limited-11277/'
p655
aS'http://www.cimaglobal.com/About-us/Find-a-CIMA-Accountant/Charles-Stringer--Co-Limited-12527/'
p656
aS'http://www.cimaglobal.com/About-us/Find-a-CIMA-Accountant/Whittock-Consulting-Limited-12118/'
p657
aS'http://www.cimaglobal.com/About-us/Find-a-CIMA-Accountant/Wilkinson-Read--Partners-Limited-9986/'
p658
aS'http://www.cimaglobal.com/About-us/Find-a-CIMA-Accountant/Impact-Management-Accounting-Solutions-Ltd-5728/'
p659
aS'http://www.cimaglobal.com/About-us/Find-a-CIMA-Accountant/ASM-B-Ltd-10257/'
p660
aS'http://www.cimaglobal.com/About-us/Find-a-CIMA-Accountant/Your-Support-Team-Ltd-12930/'
p661
aS'http://www.cimaglobal.com/About-us/Find-a-CIMA-Accountant/Accretion-Accountancy-Ltd-13678/'
p662
aS'http://www.cimaglobal.com/About-us/Find-a-CIMA-Accountant/Proofsouth-Ltd-10194/'
p663
aS'http://www.cimaglobal.com/About-us/Find-a-CIMA-Accountant/JAWs-Accountancy-Services-Ltd-5735/'
p664
aS'http://www.cimaglobal.com/About-us/Find-a-CIMA-Accountant/AVA-Ltd-9814/'
p665
aS'http://www.cimaglobal.com/About-us/Find-a-CIMA-Accountant/Chapelgarth-Consulting-Ltd-9872/'
p666
aS'http://www.cimaglobal.com/About-us/Find-a-CIMA-Accountant/Excluserv-Ltd-9838/'
p667
aS'http://www.cimaglobal.com/About-us/Find-a-CIMA-Accountant/CLW-Consultancy-11895/'
p668
aS'http://www.cimaglobal.com/About-us/Find-a-CIMA-Accountant/Laxmi-Financial-Solutions-Ltd-12449/'
p669
aS'http://www.cimaglobal.com/About-us/Find-a-CIMA-Accountant/PAW-Consulting-Ltd-9478/'
p670
aS'http://www.cimaglobal.com/About-us/Find-a-CIMA-Accountant/S-J-Young-9457/'
p671
aS'http://www.cimaglobal.com/About-us/Find-a-CIMA-Accountant/New-Tangent-Limited-12294/'
p672
aS'http://www.cimaglobal.com/About-us/Find-a-CIMA-Accountant/Tao-Business-Services-Ltd-12214/'
p673
aS'http://www.cimaglobal.com/About-us/Find-a-CIMA-Accountant/OPPIC-Accountancy-LLP-10783/'
p674
aS'http://www.cimaglobal.com/About-us/Find-a-CIMA-Accountant/7PDS-Accountancy-Services-Limited-13165/'
p675
aS'http://www.cimaglobal.com/About-us/Find-a-CIMA-Accountant/B-R-Corry-and-Co-5457/'
p676
aS'http://www.cimaglobal.com/About-us/Find-a-CIMA-Accountant/Lucia-Couse-Accountancy--Tax-Services-10609/'
p677
aS'http://www.cimaglobal.com/About-us/Find-a-CIMA-Accountant/SCCS-Accounting-Services-Limited-11864/'
p678
aS'http://www.cimaglobal.com/About-us/Find-a-CIMA-Accountant/Cura-Accounting-Ltd-13767/'
p679
aS'http://www.cimaglobal.com/About-us/Find-a-CIMA-Accountant/Rogela-Accounting-Services-10262/'
p680
aS'http://www.cimaglobal.com/About-us/Find-a-CIMA-Accountant/JMD-Accounting-Ltd-10140/'
p681
aS'http://www.cimaglobal.com/About-us/Find-a-CIMA-Accountant/Iceberg-Accounting-12426/'
p682
aS'http://www.cimaglobal.com/About-us/Find-a-CIMA-Accountant/BUSINESS-ENGINE-ROOM-12383/'
p683
aS'http://www.cimaglobal.com/About-us/Find-a-CIMA-Accountant/RDP-Accountants-5467/'
p684
aS'http://www.cimaglobal.com/About-us/Find-a-CIMA-Accountant/Mayday-Accountants-Ltd-9746/'
p685
aS'http://www.cimaglobal.com/About-us/Find-a-CIMA-Accountant/Myrdd-Management-Associates-5469/'
p686
aS'http://www.cimaglobal.com/About-us/Find-a-CIMA-Accountant/NAD-Accountancy-Limited-10013/'
p687
aS'http://www.cimaglobal.com/About-us/Find-a-CIMA-Accountant/SG-Accounting-Limited-12470/'
p688
aS'http://www.cimaglobal.com/About-us/Find-a-CIMA-Accountant/Coralmead-Accountancy-Services-Ltd-10225/'
p689
aS'http://www.cimaglobal.com/About-us/Find-a-CIMA-Accountant/Tulipthistle-Accountancy-13768/'
p690
aS'http://www.cimaglobal.com/About-us/Find-a-CIMA-Accountant/David-Doran-Management-Accountant--Business-Corporate-Consultants-5476/'
p691
aS'http://www.cimaglobal.com/About-us/Find-a-CIMA-Accountant/Douglas--Co-Accountancy-Services-Limtied-12067/'
p692
aS'http://www.cimaglobal.com/About-us/Find-a-CIMA-Accountant/Douglas-Management-Consultants-Ltd-13494/'
p693
aS'http://www.cimaglobal.com/About-us/Find-a-CIMA-Accountant/Myriad-Developments-Ltd-12262/'
p694
aS'http://www.cimaglobal.com/About-us/Find-a-CIMA-Accountant/IABarr-and-Associates-10467/'
p695
aS'http://www.cimaglobal.com/About-us/Find-a-CIMA-Accountant/RLB-Accounting-Ltd-12057/'
p696
aS'http://www.cimaglobal.com/About-us/Find-a-CIMA-Accountant/Greenbridge-Consultancy-Limited-13888/'
p697
aS'http://www.cimaglobal.com/About-us/Find-a-CIMA-Accountant/John-Beanes-ta-AIMS-5401/'
p698
aS'http://www.cimaglobal.com/About-us/Find-a-CIMA-Accountant/GB-Financials-Ltd-5402/'
p699
aS'http://www.cimaglobal.com/About-us/Find-a-CIMA-Accountant/Account-Smart-5408/'
p700
aS'http://www.cimaglobal.com/About-us/Find-a-CIMA-Accountant/Bicknell-Business-Advisers-Limited-5410/'
p701
aS'http://www.cimaglobal.com/About-us/Find-a-CIMA-Accountant/WebSmart-ltd-12381/'
p702
aS'http://www.cimaglobal.com/About-us/Find-a-CIMA-Accountant/Blake-Business-Solutions-Ltd-11681/'
p703
aS'http://www.cimaglobal.com/About-us/Find-a-CIMA-Accountant/AM--E-A-Boffey-5416/'
p704
aS'http://www.cimaglobal.com/About-us/Find-a-CIMA-Accountant/BonAcc-Limited-5418/'
p705
aS'http://www.cimaglobal.com/About-us/Find-a-CIMA-Accountant/Mark-Booth-AIMS-Accountants-for-Business-12732/'
p706
aS'http://www.cimaglobal.com/About-us/Find-a-CIMA-Accountant/My-Management-Accountant-10598/'
p707
aS'http://www.cimaglobal.com/About-us/Find-a-CIMA-Accountant/Luca-Pacioli-Limited-10416/'
p708
aS'http://www.cimaglobal.com/About-us/Find-a-CIMA-Accountant/Accountancy-Scotland-Limited-12382/'
p709
aS'http://www.cimaglobal.com/About-us/Find-a-CIMA-Accountant/Aspire-Corporate-Solutions-Ltd-12506/'
p710
aS'http://www.cimaglobal.com/About-us/Find-a-CIMA-Accountant/MP-Brookes-Accountancy-Services-9967/'
p711
aS'http://www.cimaglobal.com/About-us/Find-a-CIMA-Accountant/EB-Accountancy-11906/'
p712
aS'http://www.cimaglobal.com/About-us/Find-a-CIMA-Accountant/Danbro-Accounting-Ltd-5426/'
p713
aS'http://www.cimaglobal.com/About-us/Find-a-CIMA-Accountant/Brown--Longhorn-5427/'
p714
aS'http://www.cimaglobal.com/About-us/Find-a-CIMA-Accountant/Brown77-Ltd-13819/'
p715
aS'http://www.cimaglobal.com/About-us/Find-a-CIMA-Accountant/Birchwood-Management-Accounting-11266/'
p716
aS'http://www.cimaglobal.com/About-us/Find-a-CIMA-Accountant/Anthea-Murphy-Limited-12553/'
p717
aS'http://www.cimaglobal.com/About-us/Find-a-CIMA-Accountant/AK-Payroll-Services-Ltd-12794/'
p718
aS'http://www.cimaglobal.com/About-us/Find-a-CIMA-Accountant/Naylor-Accountancy-Services-Ltd-11239/'
p719
aS'http://www.cimaglobal.com/About-us/Find-a-CIMA-Accountant/LJC--TN-Accounting-Services-12971/'
p720
aS'http://www.cimaglobal.com/About-us/Find-a-CIMA-Accountant/Noakes-Accountancy-Services-Limited-13090/'
p721
aS'http://www.cimaglobal.com/About-us/Find-a-CIMA-Accountant/Noone--Associates-10050/'
p722
aS'http://www.cimaglobal.com/About-us/Find-a-CIMA-Accountant/JB-Norfolk--Co-12075/'
p723
aS'http://www.cimaglobal.com/About-us/Find-a-CIMA-Accountant/The-Cashroom-Ltd-10274/'
p724
aS'http://www.cimaglobal.com/About-us/Find-a-CIMA-Accountant/B-B-S-Accountants-Ltd-5616/'
p725
aS'http://www.cimaglobal.com/About-us/Find-a-CIMA-Accountant/Hilary-Sean-Accountancy-Services-Limited-12463/'
p726
aS'http://www.cimaglobal.com/About-us/Find-a-CIMA-Accountant/ATB-Support-LTD-10724/'
p727
aS'http://www.cimaglobal.com/About-us/Find-a-CIMA-Accountant/Finaserve-Limited-13831/'
p728
aS'http://www.cimaglobal.com/About-us/Find-a-CIMA-Accountant/Bluefont-Financial-Services-9666/'
p729
aS'http://www.cimaglobal.com/About-us/Find-a-CIMA-Accountant/Icon-Accountants-10171/'
p730
aS'http://www.cimaglobal.com/About-us/Find-a-CIMA-Accountant/Integrated-Accountancy-limited-12554/'
p731
aS'http://www.cimaglobal.com/About-us/Find-a-CIMA-Accountant/JLP-Services-Ltd-9517/'
p732
aS'http://www.cimaglobal.com/About-us/Find-a-CIMA-Accountant/Paige-Associates-Ltd-5451/'
p733
aS'http://www.cimaglobal.com/About-us/Find-a-CIMA-Accountant/Purple-Accounts-9521/'
p734
aS'http://www.cimaglobal.com/About-us/Find-a-CIMA-Accountant/MK-Ventures-Ltd-11620/'
p735
aS'http://www.cimaglobal.com/About-us/Find-a-CIMA-Accountant/Umbra-Luna-Strategic-Solutions-13044/'
p736
aS'http://www.cimaglobal.com/About-us/Find-a-CIMA-Accountant/HHR-Accountancy-Services-12607/'
p737
aS'http://www.cimaglobal.com/About-us/Find-a-CIMA-Accountant/ACHIEVING-CLARITY-13796/'
p738
aS'http://www.cimaglobal.com/About-us/Find-a-CIMA-Accountant/Luckva-Accountancy-5690/'
p739
aS'http://www.cimaglobal.com/About-us/Find-a-CIMA-Accountant/N-R-Thorne-12173/'
p740
aS'http://www.cimaglobal.com/About-us/Find-a-CIMA-Accountant/P-R-Thukral-5696/'
p741
aS'http://www.cimaglobal.com/About-us/Find-a-CIMA-Accountant/Blue-Sky-Management-Accountants-Ltd-5698/'
p742
aS'http://www.cimaglobal.com/About-us/Find-a-CIMA-Accountant/Zoom-Accountancy-Limited-13014/'
p743
aS'http://www.cimaglobal.com/About-us/Find-a-CIMA-Accountant/Business-Works-Uk-Ltd-10444/'
p744
aS'http://www.cimaglobal.com/About-us/Find-a-CIMA-Accountant/Lymm-Accounting-Ltd-ta-AIMS-5701/'
p745
aS'http://www.cimaglobal.com/About-us/Find-a-CIMA-Accountant/Juliette-Tompson-Accounting-Ltd-JT-Accounting-10680/'
p746
aS'http://www.cimaglobal.com/About-us/Find-a-CIMA-Accountant/Midas-Accountants--Business-Consultants-Ltd-5703/'
p747
aS'http://www.cimaglobal.com/About-us/Find-a-CIMA-Accountant/Tovey-Associates-11932/'
p748
aS'http://www.cimaglobal.com/About-us/Find-a-CIMA-Accountant/NT-Consulting-13441/'
p749
aS'http://www.cimaglobal.com/About-us/Find-a-CIMA-Accountant/Accountancy4You-ltd-11578/'
p750
aS'http://www.cimaglobal.com/About-us/Find-a-CIMA-Accountant/K-R-Accountancy-Services-10215/'
p751
aS'http://www.cimaglobal.com/About-us/Find-a-CIMA-Accountant/Redbox-Accountancy-Limited-11933/'
p752
aS'http://www.cimaglobal.com/About-us/Find-a-CIMA-Accountant/K-V--CO-10517/'
p753
aS'http://www.cimaglobal.com/About-us/Find-a-CIMA-Accountant/The-VAT-Clearing-House-Ltd-9454/'
p754
aS'http://www.cimaglobal.com/About-us/Find-a-CIMA-Accountant/OK-Wallace-Accountancy-and-Bookkeeping-5714/'
p755
aS'http://www.cimaglobal.com/About-us/Find-a-CIMA-Accountant/NHWARD-FCMACGMA-TA-SWB-11249/'
p756
aS'http://www.cimaglobal.com/About-us/Find-a-CIMA-Accountant/Raglan-Accountancy-Services-13080/'
p757
aS'http://www.cimaglobal.com/About-us/Find-a-CIMA-Accountant/Accounts-Plus-5718/'
p758
aS'http://www.cimaglobal.com/About-us/Find-a-CIMA-Accountant/Samantha-Watkins-ACMA-CGMA-MAAT-12234/'
p759
aS'http://www.cimaglobal.com/About-us/Find-a-CIMA-Accountant/Ealing-Accountancy-5481/'
p760
aS'http://www.cimaglobal.com/About-us/Find-a-CIMA-Accountant/Chilcomb-Management-Services-Ltd-11684/'
p761
aS'http://www.cimaglobal.com/About-us/Find-a-CIMA-Accountant/KFRA-TA-Evelyn-Dugdale-13789/'
p762
aS'http://www.cimaglobal.com/About-us/Find-a-CIMA-Accountant/A-E-Accountancy-Services-Ltd-10021/'
p763
aS'http://www.cimaglobal.com/About-us/Find-a-CIMA-Accountant/Coast-Accounting-Services-Ltd-12909/'
p764
aS'http://www.cimaglobal.com/About-us/Find-a-CIMA-Accountant/Astute-Accountancy-Services-13147/'
p765
aS'http://www.cimaglobal.com/About-us/Find-a-CIMA-Accountant/Business-Advisory-Services-5485/'
p766
aS'http://www.cimaglobal.com/About-us/Find-a-CIMA-Accountant/Simply-Additions-Ltd-9777/'
p767
aS'http://www.cimaglobal.com/About-us/Find-a-CIMA-Accountant/Bruce-Epsley-FCMA-CTA-5487/'
p768
aS'http://www.cimaglobal.com/About-us/Find-a-CIMA-Accountant/Easan--Co-12832/'
p769
aS'http://www.cimaglobal.com/About-us/Find-a-CIMA-Accountant/Evans-Entwistle-5489/'
p770
aS'http://www.cimaglobal.com/About-us/Find-a-CIMA-Accountant/AP-Accountancy-Ltd-9582/'
p771
aS'http://www.cimaglobal.com/About-us/Find-a-CIMA-Accountant/Alex-Gerrard-Ltd-9355/'
p772
aS'http://www.cimaglobal.com/About-us/Find-a-CIMA-Accountant/Elbus-Ltd-9977/'
p773
aS'http://www.cimaglobal.com/About-us/Find-a-CIMA-Accountant/Stuart-Ferguson-Chartered-Management-Accountants-12217/'
p774
aS'http://www.cimaglobal.com/About-us/Find-a-CIMA-Accountant/Fincello-Finance-Limited-10023/'
p775
aS'http://www.cimaglobal.com/About-us/Find-a-CIMA-Accountant/TSI-Solutions-10619/'
p776
aS'http://www.cimaglobal.com/About-us/Find-a-CIMA-Accountant/RFAS-Consulting-Limited-AIMS-Accountants-For-Business-5503/'
p777
aS'http://www.cimaglobal.com/About-us/Find-a-CIMA-Accountant/AK-Accountancy-Services-13496/'
p778
aS'http://www.cimaglobal.com/About-us/Find-a-CIMA-Accountant/Gale-Consultancy-Limited-13197/'
p779
aS'http://www.cimaglobal.com/About-us/Find-a-CIMA-Accountant/McAlister--Co-Ltd-9365/'
p780
aS'http://www.cimaglobal.com/About-us/Find-a-CIMA-Accountant/Base52-Ltd-5585/'
p781
aS'http://www.cimaglobal.com/About-us/Find-a-CIMA-Accountant/JPM-Accounting-13824/'
p782
aS'http://www.cimaglobal.com/About-us/Find-a-CIMA-Accountant/Cranmore-Accountancy-13002/'
p783
aS'http://www.cimaglobal.com/About-us/Find-a-CIMA-Accountant/GPC-Financial-Management-Ltd-10043/'
p784
aS'http://www.cimaglobal.com/About-us/Find-a-CIMA-Accountant/KG-McGahan-Consulting-Ltd-13892/'
p785
aS'http://www.cimaglobal.com/About-us/Find-a-CIMA-Accountant/Poise-Accountancy-Ltd-12787/'
p786
aS'http://www.cimaglobal.com/About-us/Find-a-CIMA-Accountant/Apple-Accounting-Services-Ltd-5590/'
p787
aS'http://www.cimaglobal.com/About-us/Find-a-CIMA-Accountant/Hospitality-Accounting-Solutions-LTD-12272/'
p788
aS'http://www.cimaglobal.com/About-us/Find-a-CIMA-Accountant/Alan-McLean-FCMA-CGMA-10167/'
p789
aS'http://www.cimaglobal.com/About-us/Find-a-CIMA-Accountant/Km-Accountancy-11236/'
p790
aS'http://www.cimaglobal.com/About-us/Find-a-CIMA-Accountant/Astute-Accountants--Tax-Consultants-5593/'
p791
aS'http://www.cimaglobal.com/About-us/Find-a-CIMA-Accountant/Thebes-Management-Accountants-LLP-11995/'
p792
aS'http://www.cimaglobal.com/About-us/Find-a-CIMA-Accountant/Kara-Accountants-Ltd-10504/'
p793
aS'http://www.cimaglobal.com/About-us/Find-a-CIMA-Accountant/J-G-Miller-13794/'
p794
aS'http://www.cimaglobal.com/About-us/Find-a-CIMA-Accountant/Stephen-Milne-Chartered-Management-Accountant-5595/'
p795
aS'http://www.cimaglobal.com/About-us/Find-a-CIMA-Accountant/Expert-Accounting-Services-Ltd-9788/'
p796
aS'http://www.cimaglobal.com/About-us/Find-a-CIMA-Accountant/Morgan-Accountancy--Bookkeeping-Services-12552/'
p797
aS'http://www.cimaglobal.com/About-us/Find-a-CIMA-Accountant/Alverstone-Morgan-Limited-13771/'
p798
aS'http://www.cimaglobal.com/About-us/Find-a-CIMA-Accountant/DJ-Morgans-Consulting-Ltd-13467/'
p799
aS'http://www.cimaglobal.com/About-us/Find-a-CIMA-Accountant/A-Morton-Accountants-Ltd-TA-TaxAssist-Accountants-5604/'
p800
aS'http://www.cimaglobal.com/About-us/Find-a-CIMA-Accountant/CSH-Accounting-Ltd-10464/'
p801
aS'http://www.cimaglobal.com/About-us/Find-a-CIMA-Accountant/G-M-Harrison-9982/'
p802
aS'http://www.cimaglobal.com/About-us/Find-a-CIMA-Accountant/Crystal-Clear-Accounting-Services-13453/'
p803
aS'http://www.cimaglobal.com/About-us/Find-a-CIMA-Accountant/K-S-Harvey--Co-13081/'
p804
aS'http://www.cimaglobal.com/About-us/Find-a-CIMA-Accountant/Hayer-Consultants-Ltd-TA-TaxAssist-Accountants-12339/'
p805
aS'http://www.cimaglobal.com/About-us/Find-a-CIMA-Accountant/Kim-Hayes-Accountancy-Ltd-13498/'
p806
aS'http://www.cimaglobal.com/About-us/Find-a-CIMA-Accountant/Nina-Hemingway-Limited-5528/'
p807
aS'http://www.cimaglobal.com/About-us/Find-a-CIMA-Accountant/John-Higgins-12240/'
p808
aS'http://www.cimaglobal.com/About-us/Find-a-CIMA-Accountant/Hirst-Accounting-Ltd-12077/'
p809
aS'http://www.cimaglobal.com/About-us/Find-a-CIMA-Accountant/Hodson-Associates-10495/'
p810
aS'http://www.cimaglobal.com/About-us/Find-a-CIMA-Accountant/John-Holmes-AIMS-Accountant-5534/'
p811
aS'http://www.cimaglobal.com/About-us/Find-a-CIMA-Accountant/Hopkins-Consulting-Ltd-ta-Ermin-Accounting-13691/'
p812
aS'http://www.cimaglobal.com/About-us/Find-a-CIMA-Accountant/LJM-Finance-Consultancy-Ltd-13882/'
p813
aS'http://www.cimaglobal.com/About-us/Find-a-CIMA-Accountant/William-P-Huggins---Accounting-Services-12550/'
p814
aS'http://www.cimaglobal.com/About-us/Find-a-CIMA-Accountant/Piper-Hulse-Limited-10633/'
p815
aS'http://www.cimaglobal.com/About-us/Find-a-CIMA-Accountant/Strathgair-Accountancy-Practice-11915/'
p816
aS'http://www.cimaglobal.com/About-us/Find-a-CIMA-Accountant/Accountancy-Advantage-Ltd-9783/'
p817
aS'http://www.cimaglobal.com/About-us/Find-a-CIMA-Accountant/Taxassist-Accountants---Stratford-Office-10738/'
p818
aS'http://www.cimaglobal.com/About-us/Find-a-CIMA-Accountant/Cameron-Hysom-Ltd-9829/'
p819
aS'http://www.cimaglobal.com/About-us/Find-a-CIMA-Accountant/Gateway-Business-Services-Ltd-12369/'
p820
aS'http://www.cimaglobal.com/About-us/Find-a-CIMA-Accountant/David-Jackson-12267/'
p821
aS'http://www.cimaglobal.com/About-us/Find-a-CIMA-Accountant/express-accounts-10438/'
p822
aS'http://www.cimaglobal.com/About-us/Find-a-CIMA-Accountant/Paul-Adams-Accounting-Ltd-13786/'
p823
aS'http://www.cimaglobal.com/About-us/Find-a-CIMA-Accountant/D--T-ACCOUNTING-5374/'
p824
aS'http://www.cimaglobal.com/About-us/Find-a-CIMA-Accountant/Chris-Josh-Samuel--Co-13164/'
p825
aS'http://www.cimaglobal.com/About-us/Find-a-CIMA-Accountant/DNS-Accountants-LLP-5375/'
p826
aS'http://www.cimaglobal.com/About-us/Find-a-CIMA-Accountant/QAM-Limited-13766/'
p827
aS'http://www.cimaglobal.com/About-us/Find-a-CIMA-Accountant/Aldred-Consultancy-Limited-5380/'
p828
aS'http://www.cimaglobal.com/About-us/Find-a-CIMA-Accountant/Millbrook-Financial-Management-Limited-11522/'
p829
aS'http://www.cimaglobal.com/About-us/Find-a-CIMA-Accountant/Altum-Solutions-Ltd-12379/'
p830
aS'http://www.cimaglobal.com/About-us/Find-a-CIMA-Accountant/KARE-FINANCIAL-MANAGEMENT-CONSULTANTS-LTD-11679/'
p831
aS'http://www.cimaglobal.com/About-us/Find-a-CIMA-Accountant/Vivben-Consultants-9683/'
p832
aS'http://www.cimaglobal.com/About-us/Find-a-CIMA-Accountant/User-Friendly-Business-Solutions-Ltd-5385/'
p833
aS'http://www.cimaglobal.com/About-us/Find-a-CIMA-Accountant/F-Dixon-Accountancy-Ltd-13663/'
p834
aS'http://www.cimaglobal.com/About-us/Find-a-CIMA-Accountant/P-Athwal-11524/'
p835
aS'http://www.cimaglobal.com/About-us/Find-a-CIMA-Accountant/Fiscal-Wizard-Ltd-12468/'
p836
aS'http://www.cimaglobal.com/About-us/Find-a-CIMA-Accountant/Enterprise-Accountancy-Ltd-11526/'
p837
aS'http://www.cimaglobal.com/About-us/Find-a-CIMA-Accountant/KAJ-Financial-Modelling-Limited-12422/'
p838
aS'http://www.cimaglobal.com/About-us/Find-a-CIMA-Accountant/Capsa-Accounting-Ltd-5392/'
p839
aS'http://www.cimaglobal.com/About-us/Find-a-CIMA-Accountant/Business-Yogi-13040/'
p840
aS'http://www.cimaglobal.com/About-us/Find-a-CIMA-Accountant/Advance-Accountancy-Services-Ltd-13711/'
p841
aS'http://www.cimaglobal.com/About-us/Find-a-CIMA-Accountant/Deards-Associates-Ltd-12014/'
p842
aS'http://www.cimaglobal.com/About-us/Find-a-CIMA-Accountant/AMS-Accounting-Services-Ltd-12625/'
p843
aS'http://www.cimaglobal.com/About-us/Find-a-CIMA-Accountant/Redwood-Accountancy-Ltd-12297/'
p844
aS'http://www.cimaglobal.com/About-us/Find-a-CIMA-Accountant/Trade-Transfer-Ltd-ta-Accountingforu-9813/'
p845
aS'http://www.cimaglobal.com/About-us/Find-a-CIMA-Accountant/AJS-Accounting-Services-Ltd-13719/'
p846
aS'http://www.cimaglobal.com/About-us/Find-a-CIMA-Accountant/Mike-Smith-Accountants-Ltd-TA-AIMS-9797/'
p847
aS'http://www.cimaglobal.com/About-us/Find-a-CIMA-Accountant/In-Line-Accounts-12556/'
p848
aS'http://www.cimaglobal.com/About-us/Find-a-CIMA-Accountant/Stanbridge-Associates-Ltd-11312/'
p849
aS'http://www.cimaglobal.com/About-us/Find-a-CIMA-Accountant/Chinchero-Ltd-12557/'
p850
aS'http://www.cimaglobal.com/About-us/Find-a-CIMA-Accountant/Digits-Accountancy-Co-Ltd-12697/'
p851
aS'http://www.cimaglobal.com/About-us/Find-a-CIMA-Accountant/HJS-Accounting-12558/'
p852
aS'http://www.cimaglobal.com/About-us/Find-a-CIMA-Accountant/Bristowe-Consulting-Ltd-10370/'
p853
aS'http://www.cimaglobal.com/About-us/Find-a-CIMA-Accountant/Sutton-Tax--Accounting-Ltd-5683/'
p854
aS'http://www.cimaglobal.com/About-us/Find-a-CIMA-Accountant/FBD-Ltd-10231/'
p855
aS'http://www.cimaglobal.com/About-us/Find-a-CIMA-Accountant/OPTIME-BUSINESS-SERVICES-LTD-13184/'
p856
aS'http://www.cimaglobal.com/About-us/Find-a-CIMA-Accountant/Financial-Management-Bath-12444/'
p857
aS'http://www.cimaglobal.com/About-us/Find-a-CIMA-Accountant/In2Profit-LTD-12486/'
p858
aS'http://www.cimaglobal.com/About-us/Find-a-CIMA-Accountant/Julie-Taylor-13652/'
p859
aS'http://www.cimaglobal.com/About-us/Find-a-CIMA-Accountant/Philip-Jacques-Chartered-Management-Accountant-13822/'
p860
aS'http://www.cimaglobal.com/About-us/Find-a-CIMA-Accountant/NJ-Accountants-9655/'
p861
aS'http://www.cimaglobal.com/About-us/Find-a-CIMA-Accountant/Kirstie-Jenkins-12762/'
p862
aS'http://www.cimaglobal.com/About-us/Find-a-CIMA-Accountant/MT-Accountants-13137/'
p863
aS'http://www.cimaglobal.com/About-us/Find-a-CIMA-Accountant/Keers-Accountants-Ltd-9362/'
p864
aS'http://www.cimaglobal.com/About-us/Find-a-CIMA-Accountant/LRK-Bookkeeping-13592/'
p865
aS'http://www.cimaglobal.com/About-us/Find-a-CIMA-Accountant/KELLICO-LTD-13205/'
p866
aS'http://www.cimaglobal.com/About-us/Find-a-CIMA-Accountant/CK-ACCOUNTING-LTD-9393/'
p867
aS'http://www.cimaglobal.com/About-us/Find-a-CIMA-Accountant/Atlas-Accounting-11232/'
p868
aS'http://www.cimaglobal.com/About-us/Find-a-CIMA-Accountant/Kingcott-Accountants-Ltd-5557/'
p869
aS'http://www.cimaglobal.com/About-us/Find-a-CIMA-Accountant/RK-Bookkeeping-Services-13823/'
p870
aS'http://www.cimaglobal.com/About-us/Find-a-CIMA-Accountant/Colin-Kitchin-Trading-as-AIMS-10038/'
p871
aS'http://www.cimaglobal.com/About-us/Find-a-CIMA-Accountant/Visionary-Chartered-Accountants-13219/'
p872
aS'http://www.cimaglobal.com/About-us/Find-a-CIMA-Accountant/Echelon-Accountancy-LLP-12998/'
p873
aS'http://www.cimaglobal.com/About-us/Find-a-CIMA-Accountant/Synergy-Business-Management-10003/'
p874
aS'http://www.cimaglobal.com/About-us/Find-a-CIMA-Accountant/Cairns-Accountants-Abacus-369-Ltd-9353/'
p875
aS'http://www.cimaglobal.com/About-us/Find-a-CIMA-Accountant/Alan-Burton-Accountancy-Services-5430/'
p876
aS'http://www.cimaglobal.com/About-us/Find-a-CIMA-Accountant/GB-Management-Accounting-LTD-5431/'
p877
aS'http://www.cimaglobal.com/About-us/Find-a-CIMA-Accountant/Certax-Accounting-High-Wycombe-and-Slough-12333/'
p878
aS'http://www.cimaglobal.com/About-us/Find-a-CIMA-Accountant/JGC-Business-Consultants-10266/'
p879
aS'http://www.cimaglobal.com/About-us/Find-a-CIMA-Accountant/JC-Accounting-Solutions-Ltd-12897/'
p880
aS'http://www.cimaglobal.com/About-us/Find-a-CIMA-Accountant/FD-Analytical-11282/'
p881
aS'http://www.cimaglobal.com/About-us/Find-a-CIMA-Accountant/Forest-Busines-Services--First-Business-Services-12585/'
p882
aS'http://www.cimaglobal.com/About-us/Find-a-CIMA-Accountant/Business-Yogi-LLP-13024/'
p883
aS'http://www.cimaglobal.com/About-us/Find-a-CIMA-Accountant/Crystal-Accounting-11461/'
p884
aS'http://www.cimaglobal.com/About-us/Find-a-CIMA-Accountant/Peter-Charles-Limited-10476/'
p885
aS'http://www.cimaglobal.com/About-us/Find-a-CIMA-Accountant/Better-Numbers-Limited-12881/'
p886
aS'http://www.cimaglobal.com/About-us/Find-a-CIMA-Accountant/Anro-Accounting-Solutions-Ltd-11907/'
p887
aS'http://www.cimaglobal.com/About-us/Find-a-CIMA-Accountant/WAC--CO-Accountants-Ltd-12920/'
p888
aS'http://www.cimaglobal.com/About-us/Find-a-CIMA-Accountant/Clack-Consultancy-Ltd-10267/'
p889
aS'http://www.cimaglobal.com/About-us/Find-a-CIMA-Accountant/Practical-Solutions-Consultancy-Ltd-9621/'
p890
aS'http://www.cimaglobal.com/About-us/Find-a-CIMA-Accountant/Clayden-Hall-Accountancy-Ltd-13460/'
p891
aS'http://www.cimaglobal.com/About-us/Find-a-CIMA-Accountant/LJ-GARFIELD-13790/'
p892
aS'http://www.cimaglobal.com/About-us/Find-a-CIMA-Accountant/Haywood-Accounting-Solutions-Ltd-10086/'
p893
aS'http://www.cimaglobal.com/About-us/Find-a-CIMA-Accountant/GBM-Accounts-5510/'
p894
aS'http://www.cimaglobal.com/About-us/Find-a-CIMA-Accountant/Steve-Goodchild-Ltd--TA-AIMS-9807/'
p895
aS'http://www.cimaglobal.com/About-us/Find-a-CIMA-Accountant/Gould-and-Co-11544/'
p896
aS'http://www.cimaglobal.com/About-us/Find-a-CIMA-Accountant/EPG-Accountants-Ltd-12387/'
p897
aS'http://www.cimaglobal.com/About-us/Find-a-CIMA-Accountant/Vizier-Ltd-11869/'
p898
aS'http://www.cimaglobal.com/About-us/Find-a-CIMA-Accountant/Gunasekara--Co-9587/'
p899
aS'http://www.cimaglobal.com/About-us/Find-a-CIMA-Accountant/Tax-Compute-Limited-13185/'
p900
aS'http://www.cimaglobal.com/About-us/Find-a-CIMA-Accountant/Sarah-Gurney-Limited-12093/'
p901
aS'http://www.cimaglobal.com/About-us/Find-a-CIMA-Accountant/Cloud-Accountancy-Limited-12805/'
p902
aS'http://www.cimaglobal.com/About-us/Find-a-CIMA-Accountant/Forest-Financial-Solutions-Limited-13738/'
p903
aS'http://www.cimaglobal.com/About-us/Find-a-CIMA-Accountant/Hames-Partnership-Ltd-10148/'
p904
aS'http://www.cimaglobal.com/About-us/Find-a-CIMA-Accountant/Hands-and-Co-Chartered-Management-Accountants-10822/'
p905
aS'http://www.cimaglobal.com/About-us/Find-a-CIMA-Accountant/Greg-Hannah--Co-Accountants-9974/'
p906
aS'http://www.cimaglobal.com/About-us/Find-a-CIMA-Accountant/DAH-Accountancy-Services-Limited-10628/'
p907
aS'http://www.cimaglobal.com/About-us/Find-a-CIMA-Accountant/Aldon-Accounting-Services-5521/'
p908
aS'http://www.cimaglobal.com/About-us/Find-a-CIMA-Accountant/Alpha-Financials-Ltd-11548/'
p909
aS'http://www.cimaglobal.com/About-us/Find-a-CIMA-Accountant/Ardgour-Resources-Ltd-11227/'
p910
aS'http://www.cimaglobal.com/About-us/Find-a-CIMA-Accountant/First-Finance-Consulting-Ltd-12810/'
p911
aS'http://www.cimaglobal.com/About-us/Find-a-CIMA-Accountant/Social-3BL-Limited-12736/'
p912
aS'http://www.cimaglobal.com/About-us/Find-a-CIMA-Accountant/White-Stone-Accountancy--Consulting-Ltd-12418/'
p913
aS'http://www.cimaglobal.com/About-us/Find-a-CIMA-Accountant/Leask-Accountancy-Solutions-10330/'
p914
aS'http://www.cimaglobal.com/About-us/Find-a-CIMA-Accountant/Numbers-Accountancy-Services-Ltd-TA-Cheap-AccountingCarleton-Long-12516/'
p915
aS'http://www.cimaglobal.com/About-us/Find-a-CIMA-Accountant/Graham-Long-and-Company-5575/'
p916
aS'http://www.cimaglobal.com/About-us/Find-a-CIMA-Accountant/Lowe-Accountancy-Services-Ltd-13482/'
p917
aS'http://www.cimaglobal.com/About-us/Find-a-CIMA-Accountant/LUC-Accounting-13792/'
p918
aS'http://www.cimaglobal.com/About-us/Find-a-CIMA-Accountant/Necton-Associates-Ltd-11920/'
p919
aS'http://www.cimaglobal.com/About-us/Find-a-CIMA-Accountant/The-3r-Partnership-Limited-10640/'
p920
aS'http://www.cimaglobal.com/About-us/Find-a-CIMA-Accountant/MTM-Financial-and-Management-Accountants-Ltd-12754/'
p921
aS'http://www.cimaglobal.com/About-us/Find-a-CIMA-Accountant/SNAMBY-CONSULTING-LTD-12434/'
p922
aS'http://www.cimaglobal.com/About-us/Find-a-CIMA-Accountant/nfsa-Accountants-Ltd-12992/'
p923
aS'http://www.cimaglobal.com/About-us/Find-a-CIMA-Accountant/Kim-Marlor-Associates-Ltd-TA-KMA-Accountancy-9760/'
p924
aS'http://www.cimaglobal.com/About-us/Find-a-CIMA-Accountant/Marsh-Corporate-Consulting-Limited-10165/'
p925
aS'http://www.cimaglobal.com/About-us/Find-a-CIMA-Accountant/Mason-Accountancy-13849/'
p926
aS'http://www.cimaglobal.com/About-us/Find-a-CIMA-Accountant/I-Mather-and-Co-Ltd-13855/'
p927
aS'http://www.cimaglobal.com/About-us/Find-a-CIMA-Accountant/Matthews--Co-Accountants-UK-13042/'
p928
aS'http://www.cimaglobal.com/About-us/Find-a-CIMA-Accountant/Philip-Barraclough--Co-10085/'
p929
aS'http://www.cimaglobal.com/About-us/Find-a-CIMA-Accountant/THOROUGHBRED-BUSINESS-MANAGEMENT-LTD-11680/'
p930
aS'http://www.cimaglobal.com/About-us/Find-a-CIMA-Accountant/Newcastle-Accountancy-11507/'
p931
aS'http://www.cimaglobal.com/About-us/Find-a-CIMA-Accountant/A-to-Z-Finance-Solutions-Ltd-12417/'
p932
aS'http://www.cimaglobal.com/About-us/Find-a-CIMA-Accountant/Baxterworld-Ltd-5400/'
p933
aS'http://www.cimaglobal.com/About-us/Find-a-CIMA-Accountant/Sue-Beaumont-10414/'
p934
aS'http://www.cimaglobal.com/About-us/Find-a-CIMA-Accountant/Mr-C-Bingley-9443/'
p935
aS'http://www.cimaglobal.com/About-us/Find-a-CIMA-Accountant/J-Bird--Associates-Ltd-9347/'
p936
aS'http://www.cimaglobal.com/About-us/Find-a-CIMA-Accountant/Blackham-Associates-Ltd-11988/'
p937
aS'http://www.cimaglobal.com/About-us/Find-a-CIMA-Accountant/Pinstripe-10469/'
p938
aS'http://www.cimaglobal.com/About-us/Find-a-CIMA-Accountant/Rodliffe-Accounting-Limited-9350/'
p939
aS'http://www.cimaglobal.com/About-us/Find-a-CIMA-Accountant/Community-Focused-Accountancy-11682/'
p940
aS'http://www.cimaglobal.com/About-us/Find-a-CIMA-Accountant/Briarsmead-Limited-13491/'
p941
aS'http://www.cimaglobal.com/About-us/Find-a-CIMA-Accountant/R-S-Bradshaw-10196/'
p942
aS'http://www.cimaglobal.com/About-us/Find-a-CIMA-Accountant/Brady--Company-10132/'
p943
aS'http://www.cimaglobal.com/About-us/Find-a-CIMA-Accountant/RPB-Accounting-services-12494/'
p944
aS'http://www.cimaglobal.com/About-us/Find-a-CIMA-Accountant/Switch-Accounting-Ltd-9933/'
p945
aS'http://www.cimaglobal.com/About-us/Find-a-CIMA-Accountant/Norden-Services-Ltd-10002/'
p946
aS'http://www.cimaglobal.com/About-us/Find-a-CIMA-Accountant/MCA-Cooper-Associates-5456/'
p947
aS'http://www.cimaglobal.com/About-us/Find-a-CIMA-Accountant/Cornaby--Stanley-Chartered-Accountants-9852/'
p948
aS'http://www.cimaglobal.com/About-us/Find-a-CIMA-Accountant/Solihull-Accounting-Ltd-12261/'
p949
aS'http://www.cimaglobal.com/About-us/Find-a-CIMA-Accountant/PHOENIX-ACCOUNTS-9473/'
p950
aS'http://www.cimaglobal.com/About-us/Find-a-CIMA-Accountant/TLB-Bookkeeping-11540/'
p951
aS'http://www.cimaglobal.com/About-us/Find-a-CIMA-Accountant/Clear-Vision-Financial-Management-Limited-12064/'
p952
aS'http://www.cimaglobal.com/About-us/Find-a-CIMA-Accountant/Darling-Bookeeping-13648/'
p953
aS'http://www.cimaglobal.com/About-us/Find-a-CIMA-Accountant/-Severin-Finance-Ltd-11997/'
p954
aS'http://www.cimaglobal.com/About-us/Find-a-CIMA-Accountant/Bethan-Davies-13228/'
p955
aS'http://www.cimaglobal.com/About-us/Find-a-CIMA-Accountant/NSBA-Ltd-Accountancy-Services-10011/'
p956
aS'http://www.cimaglobal.com/About-us/Find-a-CIMA-Accountant/Macsen-Limited-5468/'
p957
aS'http://www.cimaglobal.com/About-us/Find-a-CIMA-Accountant/Cailan-Ltd-13586/'
p958
aS'http://www.cimaglobal.com/About-us/Find-a-CIMA-Accountant/Caseron-Cloud-Accounting-Ltd-11224/'
p959
aS'http://www.cimaglobal.com/About-us/Find-a-CIMA-Accountant/adds-accounting-13019/'
p960
aS'http://www.cimaglobal.com/About-us/Find-a-CIMA-Accountant/Michelle-Djemil-ACMA-10482/'
p961
aS'http://www.cimaglobal.com/About-us/Find-a-CIMA-Accountant/Stonebridge-Associates-9546/'
p962
aS'http://www.cimaglobal.com/About-us/Find-a-CIMA-Accountant/Outspan-Ltd-5479/'
p963
aS'http://www.cimaglobal.com/About-us/Find-a-CIMA-Accountant/Consept-Accounting-Solutions-Ltd-12175/'
p964
aS'http://www.cimaglobal.com/About-us/Find-a-CIMA-Accountant/One-Stop-Accounting-Services-and-Solutions-Ltd-10200/'
p965
aS'http://www.cimaglobal.com/About-us/Find-a-CIMA-Accountant/Soar-Accountancy-Ltd-10314/'
p966
aS'http://www.cimaglobal.com/About-us/Find-a-CIMA-Accountant/Edmonds-Accountancy-Ltd-9547/'
p967
aS'http://www.cimaglobal.com/About-us/Find-a-CIMA-Accountant/PE-Accountancy-Services-9586/'
p968
aS'http://www.cimaglobal.com/About-us/Find-a-CIMA-Accountant/Sass-Ezekiel-Associates-Ltd-9993/'
p969
aS'http://www.cimaglobal.com/About-us/Find-a-CIMA-Accountant/JF-Financial-Management-Limited-11615/'
p970
aS'http://www.cimaglobal.com/About-us/Find-a-CIMA-Accountant/NEUSTA-VENTURE-MANAGEMENT-LIMITED-13191/'
p971
aS'http://www.cimaglobal.com/About-us/Find-a-CIMA-Accountant/Control-Capability-Limited-13194/'
p972
aS'http://www.cimaglobal.com/About-us/Find-a-CIMA-Accountant/Mike-Fell---Aims-Accountants-for-Business-10524/'
p973
aS'http://www.cimaglobal.com/About-us/Find-a-CIMA-Accountant/RSR-Accounting-11686/'
p974
aS'http://www.cimaglobal.com/About-us/Find-a-CIMA-Accountant/Geoff-Forth-Ltd-5501/'
p975
aS'http://www.cimaglobal.com/About-us/Find-a-CIMA-Accountant/DMF-Accountancy-Ltd-10024/'
p976
aS'http://www.cimaglobal.com/About-us/Find-a-CIMA-Accountant/FRYNANCE-LTD-12386/'
p977
aS'http://www.cimaglobal.com/About-us/Find-a-CIMA-Accountant/John-Adamson--Associates-Ltd-5373/'
p978
aS'http://www.cimaglobal.com/About-us/Find-a-CIMA-Accountant/Gordon-Addo--Associates-10584/'
p979
aS'http://www.cimaglobal.com/About-us/Find-a-CIMA-Accountant/NTM-UK-LTD-12993/'
p980
aS'http://www.cimaglobal.com/About-us/Find-a-CIMA-Accountant/Cofie-Limited-12207/'
p981
aS'http://www.cimaglobal.com/About-us/Find-a-CIMA-Accountant/Accountancy-Plus-10699/'
p982
aS'http://www.cimaglobal.com/About-us/Find-a-CIMA-Accountant/Management-Accounting-for-the-Third-Sector-9533/'
p983
aS'http://www.cimaglobal.com/About-us/Find-a-CIMA-Accountant/Sarah-Allen-Accountancy-12209/'
p984
aS'http://www.cimaglobal.com/About-us/Find-a-CIMA-Accountant/Francis-Anandappa-10702/'
p985
aS'http://www.cimaglobal.com/About-us/Find-a-CIMA-Accountant/Ray-Ankrah--Associates-9345/'
p986
aS'http://www.cimaglobal.com/About-us/Find-a-CIMA-Accountant/RAJ--CO-10407/'
p987
aS'http://www.cimaglobal.com/About-us/Find-a-CIMA-Accountant/RFM-Lancaster-Limited-11643/'
p988
aS'http://www.cimaglobal.com/About-us/Find-a-CIMA-Accountant/Armond-Associates-Ltd-10305/'
p989
aS'http://www.cimaglobal.com/About-us/Find-a-CIMA-Accountant/Bosede-Babalola-TA-Payroll-and-Bookkeeping-Solutions-Ltd-13476/'
p990
aS'http://www.cimaglobal.com/About-us/Find-a-CIMA-Accountant/Lucid-Accountants--Business-Advisors-Ltd-5395/'
p991
aS'http://www.cimaglobal.com/About-us/Find-a-CIMA-Accountant/CB-Accounting-Solutions-Ltd-9512/'
p992
aS'http://www.cimaglobal.com/About-us/Find-a-CIMA-Accountant/ISMAC-Ltd-ta-numbrsonline-5587/'
p993
aS'http://www.cimaglobal.com/About-us/Find-a-CIMA-Accountant/Just-Simply-Accounting-Limited-10502/'
p994
aS'http://www.cimaglobal.com/About-us/Find-a-CIMA-Accountant/AMCC-ACCOUNTANCY-SERVICES-LTD-13884/'
p995
aS'http://www.cimaglobal.com/About-us/Find-a-CIMA-Accountant/Ai-Accountants-10107/'
p996
aS'http://www.cimaglobal.com/About-us/Find-a-CIMA-Accountant/EJM-Accountancy-Services-5589/'
p997
aS'http://www.cimaglobal.com/About-us/Find-a-CIMA-Accountant/Number-Seven-Partners-Limited-11878/'
p998
aS'http://www.cimaglobal.com/About-us/Find-a-CIMA-Accountant/Coates--Partners-Limited-11557/'
p999
aS'http://www.cimaglobal.com/About-us/Find-a-CIMA-Accountant/CALA-Accounting-Ltd-13770/'
p1000
aS'http://www.cimaglobal.com/About-us/Find-a-CIMA-Accountant/CJM-Project-Financial-Management-Ltd-10109/'
p1001
aS'http://www.cimaglobal.com/About-us/Find-a-CIMA-Accountant/McNaughten-Consulting-13595/'
p1002
aS'http://www.cimaglobal.com/About-us/Find-a-CIMA-Accountant/Anne-McPhail-ACMA-11235/'
p1003
aS'http://www.cimaglobal.com/About-us/Find-a-CIMA-Accountant/Two-Moors-Accounting-11692/'
p1004
aS'http://www.cimaglobal.com/About-us/Find-a-CIMA-Accountant/T-J-Merrett-10433/'
p1005
aS'http://www.cimaglobal.com/About-us/Find-a-CIMA-Accountant/River-View-Tax--Accountancy-Ltd-9868/'
p1006
aS'http://www.cimaglobal.com/About-us/Find-a-CIMA-Accountant/C-Meylak-accountants-12344/'
p1007
aS'http://www.cimaglobal.com/About-us/Find-a-CIMA-Accountant/Priory-Orchard-Ltd-12476/'
p1008
aS'http://www.cimaglobal.com/About-us/Find-a-CIMA-Accountant/Miller-Management-Accounting-Ltd-12737/'
p1009
aS'http://www.cimaglobal.com/About-us/Find-a-CIMA-Accountant/Capshine-Ltd-9787/'
p1010
aS'http://www.cimaglobal.com/About-us/Find-a-CIMA-Accountant/Zass-Solutions-Ltd-13664/'
p1011
aS'http://www.cimaglobal.com/About-us/Find-a-CIMA-Accountant/Moore-Stephens-Insight-Ltd-10403/'
p1012
aS'http://www.cimaglobal.com/About-us/Find-a-CIMA-Accountant/Windrush-Business-Services-11560/'
p1013
aS'http://www.cimaglobal.com/About-us/Find-a-CIMA-Accountant/Tax-Assist-Accountants-10505/'
p1014
aS'http://www.cimaglobal.com/About-us/Find-a-CIMA-Accountant/Morrison-Associates-12616/'
p1015
aS'http://www.cimaglobal.com/About-us/Find-a-CIMA-Accountant/Sara-Passey-TA-AIMS-Accountants-for-Business-13183/'
p1016
aS'http://www.cimaglobal.com/About-us/Find-a-CIMA-Accountant/TaxAssist-Accountants---Nitesh-Patel-12517/'
p1017
aS'http://www.cimaglobal.com/About-us/Find-a-CIMA-Accountant/Uk-Management-Accountancy-Ltd-10295/'
p1018
aS'http://www.cimaglobal.com/About-us/Find-a-CIMA-Accountant/Dial-Management-Accounting-10888/'
p1019
aS'http://www.cimaglobal.com/About-us/Find-a-CIMA-Accountant/AFP-Services-Ltd-9693/'
p1020
aS'http://www.cimaglobal.com/About-us/Find-a-CIMA-Accountant/S-J-Perry-Ltd-11564/'
p1021
aS'http://www.cimaglobal.com/About-us/Find-a-CIMA-Accountant/-Phillips-Associates-5628/'
p1022
aS'http://www.cimaglobal.com/About-us/Find-a-CIMA-Accountant/GDS-Accountancy-Services-Ltd-10177/'
p1023
aS'http://www.cimaglobal.com/About-us/Find-a-CIMA-Accountant/SP-Accountancy-13029/'
p1024
aS'http://www.cimaglobal.com/About-us/Find-a-CIMA-Accountant/CDP-Accountancy-12478/'
p1025
aS'http://www.cimaglobal.com/About-us/Find-a-CIMA-Accountant/Martin-Poole-12944/'
p1026
aS'http://www.cimaglobal.com/About-us/Find-a-CIMA-Accountant/The-Accounting-Factory-9882/'
p1027
aS'http://www.cimaglobal.com/About-us/Find-a-CIMA-Accountant/Spider-Associates-Ltd-ta-AIMS-Accountants-for-Business-10178/'
p1028
aS'http://www.cimaglobal.com/About-us/Find-a-CIMA-Accountant/Tina-Porter-Ltd-5633/'
p1029
aS'http://www.cimaglobal.com/About-us/Find-a-CIMA-Accountant/Richard-Preedy-ta-TaxAssist-Accountants-12398/'
p1030
aS'http://www.cimaglobal.com/About-us/Find-a-CIMA-Accountant/Price-Accounting-Ltd-10352/'
p1031
aS'http://www.cimaglobal.com/About-us/Find-a-CIMA-Accountant/FSA-Business-Services-5634/'
p1032
aS'http://www.cimaglobal.com/About-us/Find-a-CIMA-Accountant/Q-Accounts-Ltd-11286/'
p1033
aS'http://www.cimaglobal.com/About-us/Find-a-CIMA-Accountant/HR-Chartered-Accountants-11567/'
p1034
aS'http://www.cimaglobal.com/About-us/Find-a-CIMA-Accountant/R2-Finance-Limited-13230/'
p1035
aS'http://www.cimaglobal.com/About-us/Find-a-CIMA-Accountant/Reed-Accountancy-ltd-13832/'
p1036
aS'http://www.cimaglobal.com/About-us/Find-a-CIMA-Accountant/Michelle-Reynolds-Limited-12243/'
p1037
aS'http://www.cimaglobal.com/About-us/Find-a-CIMA-Accountant/Huw-Roberts-5641/'
p1038
aS'http://www.cimaglobal.com/About-us/Find-a-CIMA-Accountant/Figures-4-Business-LLP-12296/'
p1039
aS'http://www.cimaglobal.com/About-us/Find-a-CIMA-Accountant/Maddaford-Menteith-Ltd-13149/'
p1040
aS'http://www.cimaglobal.com/About-us/Find-a-CIMA-Accountant/Figurate-Ltd-10253/'
p1041
aS'http://www.cimaglobal.com/About-us/Find-a-CIMA-Accountant/Budding-Accountancy-12399/'
p1042
aS'http://www.cimaglobal.com/About-us/Find-a-CIMA-Accountant/The-Accountancy-Office-Ltd-9768/'
p1043
aS'http://www.cimaglobal.com/About-us/Find-a-CIMA-Accountant/Chaddesley-Sanford-Limited-9758/'
p1044
aS'http://www.cimaglobal.com/About-us/Find-a-CIMA-Accountant/Sauba--Co-10120/'
p1045
aS'http://www.cimaglobal.com/About-us/Find-a-CIMA-Accountant/Saunders-Accounting--Finance-Ltd-13033/'
p1046
aS'http://www.cimaglobal.com/About-us/Find-a-CIMA-Accountant/Continuum-Limited-12355/'
p1047
aS'http://www.cimaglobal.com/About-us/Find-a-CIMA-Accountant/Chris-Sawyer-Accountant-13469/'
p1048
aS'http://www.cimaglobal.com/About-us/Find-a-CIMA-Accountant/A-W-Scott-Accountancy-Ltd-5654/'
p1049
aS'http://www.cimaglobal.com/About-us/Find-a-CIMA-Accountant/SB-Accounts-Ltd-13141/'
p1050
aS'http://www.cimaglobal.com/About-us/Find-a-CIMA-Accountant/Horizon-Business-Growth-Consultancy-Limited-12928/'
p1051
aS'http://www.cimaglobal.com/About-us/Find-a-CIMA-Accountant/Sethi--Sethi-Ltd-5658/'
p1052
aS'http://www.cimaglobal.com/About-us/Find-a-CIMA-Accountant/EmergeOne-Ltd-12847/'
p1053
aS'http://www.cimaglobal.com/About-us/Find-a-CIMA-Accountant/G5-Business-Consulting-Limited-TA-My-Controller-Harrow-13602/'
p1054
aS'http://www.cimaglobal.com/About-us/Find-a-CIMA-Accountant/AIMS-Accountants-for-Business-Harish-Shah-12080/'
p1055
aS'http://www.cimaglobal.com/About-us/Find-a-CIMA-Accountant/Barton-Manor-Consulting-Ltd-10406/'
p1056
aS'http://www.cimaglobal.com/About-us/Find-a-CIMA-Accountant/DW-Accountants-10659/'
p1057
aS'http://www.cimaglobal.com/About-us/Find-a-CIMA-Accountant/WIS-Accountancy-11430/'
p1058
aS'http://www.cimaglobal.com/About-us/Find-a-CIMA-Accountant/Harvey-Morgan-Services-9975/'
p1059
aS'http://www.cimaglobal.com/About-us/Find-a-CIMA-Accountant/HG-Accountants--Tax-Consultants-Ltd-11462/'
p1060
aS'http://www.cimaglobal.com/About-us/Find-a-CIMA-Accountant/RCN-Advisory-Services-5526/'
p1061
aS'http://www.cimaglobal.com/About-us/Find-a-CIMA-Accountant/Marple-Accountancy-and-Business-Services-Limited-9782/'
p1062
aS'http://www.cimaglobal.com/About-us/Find-a-CIMA-Accountant/Russell-Heath-Accountants-Limited-10150/'
p1063
aS'http://www.cimaglobal.com/About-us/Find-a-CIMA-Accountant/RLH-Accountants-Ltd-12844/'
p1064
aS'http://www.cimaglobal.com/About-us/Find-a-CIMA-Accountant/Max-Accountants-Ltd-9590/'
p1065
aS'http://www.cimaglobal.com/About-us/Find-a-CIMA-Accountant/Lynchpin-Accounting-Ltd-9828/'
p1066
aS'http://www.cimaglobal.com/About-us/Find-a-CIMA-Accountant/Shilco-Ltd-12112/'
p1067
aS'http://www.cimaglobal.com/About-us/Find-a-CIMA-Accountant/Hiller-Associates-10711/'
p1068
aS'http://www.cimaglobal.com/About-us/Find-a-CIMA-Accountant/Julie-Hills-13201/'
p1069
aS'http://www.cimaglobal.com/About-us/Find-a-CIMA-Accountant/2Bio-Ltd-9916/'
p1070
aS'http://www.cimaglobal.com/About-us/Find-a-CIMA-Accountant/Buttertown-Ltd-10554/'
p1071
aS'http://www.cimaglobal.com/About-us/Find-a-CIMA-Accountant/Antony-J-Holdsworth--Co-9519/'
p1072
aS'http://www.cimaglobal.com/About-us/Find-a-CIMA-Accountant/Oakdene-Consultants-Ltd-10551/'
p1073
aS'http://www.cimaglobal.com/About-us/Find-a-CIMA-Accountant/Imani-Financial-Solutions-Ltd-10033/'
p1074
aS'http://www.cimaglobal.com/About-us/Find-a-CIMA-Accountant/Abstract-Code-Limited-13591/'
p1075
aS'http://www.cimaglobal.com/About-us/Find-a-CIMA-Accountant/David-Irving-Consultancy-Limited-13047/'
p1076
aS'http://www.cimaglobal.com/About-us/Find-a-CIMA-Accountant/MCT-Services-UK-Limited-10034/'
p1077
aS'http://www.cimaglobal.com/About-us/Find-a-CIMA-Accountant/Shorton-Investments-Ltd-12357/'
p1078
aS'http://www.cimaglobal.com/About-us/Find-a-CIMA-Accountant/IAW-Accountancy-Services-5720/'
p1079
aS'http://www.cimaglobal.com/About-us/Find-a-CIMA-Accountant/123ITworks-13893/'
p1080
aS'http://www.cimaglobal.com/About-us/Find-a-CIMA-Accountant/Athena-Small-Business-Accountants-Ltd-10077/'
p1081
aS'http://www.cimaglobal.com/About-us/Find-a-CIMA-Accountant/Trevor-White-10256/'
p1082
aS'http://www.cimaglobal.com/About-us/Find-a-CIMA-Accountant/Whiteman-and-Byrne-Limited-12929/'
p1083
aS'http://www.cimaglobal.com/About-us/Find-a-CIMA-Accountant/Andy-M-Whittaker-Monmouth-Ltd-5726/'
p1084
aS'http://www.cimaglobal.com/About-us/Find-a-CIMA-Accountant/Counters-Consulting-Ltd-5727/'
p1085
aS'http://www.cimaglobal.com/About-us/Find-a-CIMA-Accountant/Weaver-afs-Ltd-9929/'
p1086
aS'http://www.cimaglobal.com/About-us/Find-a-CIMA-Accountant/Redwood-Pryor-Ltd-10129/'
p1087
aS'http://www.cimaglobal.com/About-us/Find-a-CIMA-Accountant/BRK-Accounting-Services-Ltd-TA-AIMS-Accountants-5732/'
p1088
aS'http://www.cimaglobal.com/About-us/Find-a-CIMA-Accountant/Acrio-Limited-10384/'
p1089
aS'http://www.cimaglobal.com/About-us/Find-a-CIMA-Accountant/TW-Accounting-Services-12466/'
p1090
aS'http://www.cimaglobal.com/About-us/Find-a-CIMA-Accountant/AW-Accounting-Services-13143/'
p1091
aS'http://www.cimaglobal.com/About-us/Find-a-CIMA-Accountant/Glencross-Wood--Co-5740/'
p1092
aS'http://www.cimaglobal.com/About-us/Find-a-CIMA-Accountant/WrightCFO-Ltd-12608/'
p1093
aS'http://www.cimaglobal.com/About-us/Find-a-CIMA-Accountant/Lorraine-Yearwood-9857/'
p1094
aS'http://www.cimaglobal.com/About-us/Find-a-CIMA-Accountant/Saxford-Management-Services-9695/'
p1095
aS'http://www.cimaglobal.com/About-us/Find-a-CIMA-Accountant/Accounting-and-Office-Solutions-10451/'
p1096
aS'http://www.cimaglobal.com/About-us/Find-a-CIMA-Accountant/Apto-Accounting-12409/'
p1097
aS'http://www.cimaglobal.com/About-us/Find-a-CIMA-Accountant/Addwings-Ltd-13045/'
p1098
aS'http://www.cimaglobal.com/About-us/Find-a-CIMA-Accountant/Taxassist-accountants-10891/'
p1099
aS'http://www.cimaglobal.com/About-us/Find-a-CIMA-Accountant/MSR-GROUP-LTD-10982/'
p1100
aS'http://www.cimaglobal.com/About-us/Find-a-CIMA-Accountant/Westwood-Accountancy-Ltd-9598/'
p1101
aS'http://www.cimaglobal.com/About-us/Find-a-CIMA-Accountant/Avondale-Medical-Ltd-10254/'
p1102
aS'http://www.cimaglobal.com/About-us/Find-a-CIMA-Accountant/Barrington-Accounting-Solutions-5667/'
p1103
aS'http://www.cimaglobal.com/About-us/Find-a-CIMA-Accountant/Accounting-Executive-Solutions-Ltd-5670/'
p1104
aS'http://www.cimaglobal.com/About-us/Find-a-CIMA-Accountant/GNS-Accounting-Services-12768/'
p1105
aS'http://www.cimaglobal.com/About-us/Find-a-CIMA-Accountant/Southern-Consulting-5673/'
p1106
aS'http://www.cimaglobal.com/About-us/Find-a-CIMA-Accountant/Abacus-Accountants-9632/'
p1107
aS'http://www.cimaglobal.com/About-us/Find-a-CIMA-Accountant/Rocket-Business-Services-Ltd-5676/'
p1108
aS'http://www.cimaglobal.com/About-us/Find-a-CIMA-Accountant/Mike-Stevens--Co-5677/'
p1109
aS'http://www.cimaglobal.com/About-us/Find-a-CIMA-Accountant/Harlequin-View-Partners-Ltd-13067/'
p1110
aS'http://www.cimaglobal.com/About-us/Find-a-CIMA-Accountant/BKPS-Ltd-9770/'
p1111
aS'http://www.cimaglobal.com/About-us/Find-a-CIMA-Accountant/Orben-Accounts-Limited-13502/'
p1112
aS'http://www.cimaglobal.com/About-us/Find-a-CIMA-Accountant/R-F-Summers-5682/'
p1113
aS'http://www.cimaglobal.com/About-us/Find-a-CIMA-Accountant/Robert-Swinchatt-13251/'
p1114
aS'http://www.cimaglobal.com/About-us/Find-a-CIMA-Accountant/James-Synge-TA-AIMS-184-5686/'
p1115
aS'http://www.cimaglobal.com/About-us/Find-a-CIMA-Accountant/Lucy-Tait-13050/'
p1116
aS'http://www.cimaglobal.com/About-us/Find-a-CIMA-Accountant/Tremaines-Ltd-5687/'
p1117
aS'http://www.cimaglobal.com/About-us/Find-a-CIMA-Accountant/Dovecote-Financial-Management-Ltd-10701/'
p1118
aS'http://www.cimaglobal.com/About-us/Find-a-CIMA-Accountant/Ranolytic-LTD-13774/'
p1119
aS'http://www.cimaglobal.com/About-us/Find-a-CIMA-Accountant/Direct-Business--Accounting-Services-Limited-13028/'
p1120
aS'http://www.cimaglobal.com/About-us/Find-a-CIMA-Accountant/MM-Accounting-Services-11881/'
p1121
aS'http://www.cimaglobal.com/About-us/Find-a-CIMA-Accountant/P--K-Associates-12043/'
p1122
aS'http://www.cimaglobal.com/About-us/Find-a-CIMA-Accountant/A-Nayyar-10048/'
p1123
aS'http://www.cimaglobal.com/About-us/Find-a-CIMA-Accountant/MPN-Accounting-Ltd-ta-AIMS-Accountants-for-Business-9368/'
p1124
aS'http://www.cimaglobal.com/About-us/Find-a-CIMA-Accountant/Neale-Accounting--Division-of-Neale-Management-Services-Ltd-10644/'
p1125
aS'http://www.cimaglobal.com/About-us/Find-a-CIMA-Accountant/Bluestar-Accounting-Limited-10110/'
p1126
aS'http://www.cimaglobal.com/About-us/Find-a-CIMA-Accountant/Martin-Nicholas-TA-TaxAssist-Accountants-13193/'
p1127
aS'http://www.cimaglobal.com/About-us/Find-a-CIMA-Accountant/David-Noble-TA-AIMS-Accountants-for-Business-9449/'
p1128
aS'http://www.cimaglobal.com/About-us/Find-a-CIMA-Accountant/OBoyle-Accounting--Taxation-Ltd-9370/'
p1129
aS'http://www.cimaglobal.com/About-us/Find-a-CIMA-Accountant/Green-Hill-Accountancy-13061/'
p1130
aS'http://www.cimaglobal.com/About-us/Find-a-CIMA-Accountant/Bisola-Obileye-Accounting-Services-10347/'
p1131
aS'http://www.cimaglobal.com/About-us/Find-a-CIMA-Accountant/Megacorp-Accountants-Limited-10841/'
p1132
aS'http://www.cimaglobal.com/About-us/Find-a-CIMA-Accountant/Whitestone-Accounting-Ltd-11563/'
p1133
aS'http://www.cimaglobal.com/About-us/Find-a-CIMA-Accountant/Panton--Co-Accountants-Limited-13020/'
p1134
aS'http://www.cimaglobal.com/About-us/Find-a-CIMA-Accountant/Kingdom-Accounts-10173/'
p1135
aS'http://www.cimaglobal.com/About-us/Find-a-CIMA-Accountant/Beechwood-Accountants--Business-Advisors-Limited-10649/'
p1136
aS'http://www.cimaglobal.com/About-us/Find-a-CIMA-Accountant/Taurus-Accounting-Services-10894/'
p1137
aS'http://www.cimaglobal.com/About-us/Find-a-CIMA-Accountant/Amity-Magement-Consulting-Ltd-10190/'
p1138
aS'http://www.cimaglobal.com/About-us/Find-a-CIMA-Accountant/Paul-Thurlow-5697/'
p1139
aS'http://www.cimaglobal.com/About-us/Find-a-CIMA-Accountant/Tolias-Humphreys--Co-10374/'
p1140
aS'http://www.cimaglobal.com/About-us/Find-a-CIMA-Accountant/IT-Tax-and-Accountancy-11699/'
p1141
aS'http://www.cimaglobal.com/About-us/Find-a-CIMA-Accountant/Deri-Godwin-and-Company-10664/'
p1142
aS'http://www.cimaglobal.com/About-us/Find-a-CIMA-Accountant/ATM-Accountants-Ltd-10558/'
p1143
aS'http://www.cimaglobal.com/About-us/Find-a-CIMA-Accountant/Varney-Barfield--Co-Ltd-5710/'
p1144
aS'http://www.cimaglobal.com/About-us/Find-a-CIMA-Accountant/CV-ABAS-Limited-9689/'
p1145
aS'http://www.cimaglobal.com/About-us/Find-a-CIMA-Accountant/Business-Financial-Resourcing-Limited-13797/'
p1146
aS'http://www.cimaglobal.com/About-us/Find-a-CIMA-Accountant/Panthera-Ltd-10205/'
p1147
aS'http://www.cimaglobal.com/About-us/Find-a-CIMA-Accountant/Visionary-Accountants-10668/'
p1148
aS'http://www.cimaglobal.com/About-us/Find-a-CIMA-Accountant/JM-Accounting-Services-Limited-5546/'
p1149
aS'http://www.cimaglobal.com/About-us/Find-a-CIMA-Accountant/Jarvis-Consulting-13060/'
p1150
aS'http://www.cimaglobal.com/About-us/Find-a-CIMA-Accountant/Jefferies-Accountancy-Services-Ltd-9934/'
p1151
aS'http://www.cimaglobal.com/About-us/Find-a-CIMA-Accountant/ADV-Accountancy-Ltd-12807/'
p1152
aS'http://www.cimaglobal.com/About-us/Find-a-CIMA-Accountant/Hazelwood-Accounting-Services-Ltd-12746/'
p1153
aS'http://www.cimaglobal.com/About-us/Find-a-CIMA-Accountant/JE-Johnson-Ltd-5550/'
p1154
aS'http://www.cimaglobal.com/About-us/Find-a-CIMA-Accountant/Vision-Accounts-Limited-12389/'
p1155
aS'http://www.cimaglobal.com/About-us/Find-a-CIMA-Accountant/Beechwood-Accountants-Ltd-ta-TaxAssist-Accountants-10229/'
p1156
aS'http://www.cimaglobal.com/About-us/Find-a-CIMA-Accountant/P-D-Jones-Financials-Ltd-9784/'
p1157
aS'http://www.cimaglobal.com/About-us/Find-a-CIMA-Accountant/SGNL-Consulting-Ltd-10154/'
p1158
aS'http://www.cimaglobal.com/About-us/Find-a-CIMA-Accountant/Kamal--Co-9361/'
p1159
aS'http://www.cimaglobal.com/About-us/Find-a-CIMA-Accountant/CTB-Accounts-Ltd-5552/'
p1160
aS'http://www.cimaglobal.com/About-us/Find-a-CIMA-Accountant/Helen-J-Kelham-12980/'
p1161
aS'http://www.cimaglobal.com/About-us/Find-a-CIMA-Accountant/LJK-Financial-Planning-13074/'
p1162
aS'http://www.cimaglobal.com/About-us/Find-a-CIMA-Accountant/Pound-Lane-Business-Accounting-10837/'
p1163
aS'http://www.cimaglobal.com/About-us/Find-a-CIMA-Accountant/IM-Small-Business-Finances-Ltd-12113/'
p1164
aS'http://www.cimaglobal.com/About-us/Find-a-CIMA-Accountant/Abacus-Partners-Ldn-LLP-12586/'
p1165
aS'http://www.cimaglobal.com/About-us/Find-a-CIMA-Accountant/Mr-Vikas-Khare-13159/'
p1166
aS'http://www.cimaglobal.com/About-us/Find-a-CIMA-Accountant/PK-Accountancy--Business-Services-Ltd-11268/'
p1167
aS'http://www.cimaglobal.com/About-us/Find-a-CIMA-Accountant/Killick-Associates-Ltd-12462/'
p1168
aS'http://www.cimaglobal.com/About-us/Find-a-CIMA-Accountant/Eskae-Accountancy-Limited-13464/'
p1169
aS'http://www.cimaglobal.com/About-us/Find-a-CIMA-Accountant/Smartfinancials-Partnership-Limited-10329/'
p1170
aS'http://www.cimaglobal.com/About-us/Find-a-CIMA-Accountant/AJ-Management-Accountants-Ltd-10544/'
p1171
aS'http://www.cimaglobal.com/About-us/Find-a-CIMA-Accountant/Johal--Associates-5549/'
p1172
aS'http://www.cimaglobal.com/About-us/Find-a-CIMA-Accountant/Tiffany-John-13658/'
p1173
aS'http://www.cimaglobal.com/About-us/Find-a-CIMA-Accountant/Proactive-Consulting-Ltd-11550/'
p1174
aS'http://www.cimaglobal.com/About-us/Find-a-CIMA-Accountant/Integral-13462/'
p1175
aS'http://www.cimaglobal.com/About-us/Find-a-CIMA-Accountant/Grant-Jones-Accountancy-Ltd-9474/'
p1176
aS'http://www.cimaglobal.com/About-us/Find-a-CIMA-Accountant/Value-Accounting-Ltd-9808/'
p1177
aS'http://www.cimaglobal.com/About-us/Find-a-CIMA-Accountant/J--L-ACCOUNTANCY-LTD-12600/'
p1178
aS'http://www.cimaglobal.com/About-us/Find-a-CIMA-Accountant/KS--Co-Accountants-10636/'
p1179
aS'http://www.cimaglobal.com/About-us/Find-a-CIMA-Accountant/Ashco-Accountants-Ltd-9616/'
p1180
aS'http://www.cimaglobal.com/About-us/Find-a-CIMA-Accountant/J--J-Kelly-Ltd-12868/'
p1181
aS'http://www.cimaglobal.com/About-us/Find-a-CIMA-Accountant/MG-Accounting-Service-UK-Ltd-13481/'
p1182
aS'http://www.cimaglobal.com/About-us/Find-a-CIMA-Accountant/Inform-Accounting-Limited-9629/'
p1183
aS'http://www.cimaglobal.com/About-us/Find-a-CIMA-Accountant/Stellar-Accountants-Chiswick-Limited-11917/'
p1184
aS'http://www.cimaglobal.com/About-us/Find-a-CIMA-Accountant/Muriel-Kemkeng-13463/'
p1185
aS'http://www.cimaglobal.com/About-us/Find-a-CIMA-Accountant/Nathan-Kemp-10637/'
p1186
aS'http://www.cimaglobal.com/About-us/Find-a-CIMA-Accountant/McLennan-Kempson--Co-5554/'
p1187
aS'http://www.cimaglobal.com/About-us/Find-a-CIMA-Accountant/Belsoft-Strategic-Accounting-Limited-9395/'
p1188
aS'http://www.cimaglobal.com/About-us/Find-a-CIMA-Accountant/ta-Autonomy-Finance-11918/'
p1189
aS'http://www.cimaglobal.com/About-us/Find-a-CIMA-Accountant/JK-Accounting-12342/'
p1190
aS'http://www.cimaglobal.com/About-us/Find-a-CIMA-Accountant/RLK-Accountancy-Ltd-12601/'
p1191
aS'http://www.cimaglobal.com/About-us/Find-a-CIMA-Accountant/Sine-Qua-Non-Business-Services-Ltd-13465/'
p1192
aS'http://www.cimaglobal.com/About-us/Find-a-CIMA-Accountant/2plus2-Accountancy-Ltd-9648/'
p1193
aS'http://www.cimaglobal.com/About-us/Find-a-CIMA-Accountant/Abacus-30-Ltd-10203/'
p1194
aS'http://www.cimaglobal.com/About-us/Find-a-CIMA-Accountant/Corrigan--Co-Limited-12061/'
p1195
aS'http://www.cimaglobal.com/About-us/Find-a-CIMA-Accountant/Peter-Cox-Accountancy-Ltd-9766/'
p1196
aS'http://www.cimaglobal.com/About-us/Find-a-CIMA-Accountant/Cracknell--Co-5459/'
p1197
aS'http://www.cimaglobal.com/About-us/Find-a-CIMA-Accountant/--Abak-Office-Limited-10610/'
p1198
aS'http://www.cimaglobal.com/About-us/Find-a-CIMA-Accountant/Nav-Rec-Limited-13881/'
p1199
aS'http://www.cimaglobal.com/About-us/Find-a-CIMA-Accountant/TaxAssist-Accountants-Vincenzo-Dalaimo-5462/'
p1200
aS'http://www.cimaglobal.com/About-us/Find-a-CIMA-Accountant/Bradshaw-Daniel-Limited-13853/'
p1201
aS'http://www.cimaglobal.com/About-us/Find-a-CIMA-Accountant/Davey-Business-Accounting-and-Information-Services-Limited-11541/'
p1202
aS'http://www.cimaglobal.com/About-us/Find-a-CIMA-Accountant/Charterwoods-11257/'
p1203
aS'http://www.cimaglobal.com/About-us/Find-a-CIMA-Accountant/Nigel-Davies-Limited-5466/'
p1204
aS'http://www.cimaglobal.com/About-us/Find-a-CIMA-Accountant/Taxing-Times-Accounting--Consultancy-Ltd-12334/'
p1205
aS'http://www.cimaglobal.com/About-us/Find-a-CIMA-Accountant/Davison--Co-9624/'
p1206
aS'http://www.cimaglobal.com/About-us/Find-a-CIMA-Accountant/IQIA-Limited-12362/'
p1207
aS'http://www.cimaglobal.com/About-us/Find-a-CIMA-Accountant/Day-Associates-Ltd-TA-Taxassist-Accountants-10313/'
p1208
aS'http://www.cimaglobal.com/About-us/Find-a-CIMA-Accountant/Alpha-Accountants-Ltd-9892/'
p1209
aS'http://www.cimaglobal.com/About-us/Find-a-CIMA-Accountant/Yvonne-Debono-Accounting-Services-13587/'
p1210
aS'http://www.cimaglobal.com/About-us/Find-a-CIMA-Accountant/Van-Der-Wood-Accounting-and-Business-IT-Solutions-11910/'
p1211
aS'http://www.cimaglobal.com/About-us/Find-a-CIMA-Accountant/Axiom-e-Ltd-5473/'
p1212
aS'http://www.cimaglobal.com/About-us/Find-a-CIMA-Accountant/Dixon-Accountancy-Services-Ltd-13079/'
p1213
aS'http://www.cimaglobal.com/About-us/Find-a-CIMA-Accountant/Smartworks-Chartered-Accountants-10016/'
p1214
aS'http://www.cimaglobal.com/About-us/Find-a-CIMA-Accountant/Mary-Franks-Ltd-10277/'
p1215
aS'http://www.cimaglobal.com/About-us/Find-a-CIMA-Accountant/WISDOM-TAX-ACCOUNTANTS-LTD-12763/'
p1216
aS'http://www.cimaglobal.com/About-us/Find-a-CIMA-Accountant/INGA-Accountancy-services-12481/'
p1217
aS'http://www.cimaglobal.com/About-us/Find-a-CIMA-Accountant/Just-Accountancy-ltd-12282/'
p1218
aS'http://www.cimaglobal.com/About-us/Find-a-CIMA-Accountant/TLA-Business-Services-5700/'
p1219
aS'http://www.cimaglobal.com/About-us/Find-a-CIMA-Accountant/RN-Accountants-Ltd-12445/'
p1220
aS'http://www.cimaglobal.com/About-us/Find-a-CIMA-Accountant/Virgate-Accounts-Ltd-13470/'
p1221
aS'http://www.cimaglobal.com/About-us/Find-a-CIMA-Accountant/Rosemount-Accounting-Services-Ltd-10069/'
p1222
aS'http://www.cimaglobal.com/About-us/Find-a-CIMA-Accountant/JM-Turns--Co-10515/'
p1223
aS'http://www.cimaglobal.com/About-us/Find-a-CIMA-Accountant/Artifin-Accountants-11432/'
p1224
aS'http://www.cimaglobal.com/About-us/Find-a-CIMA-Accountant/DECIMAL-ACCOUNTANCY-LIMITED-13825/'
p1225
aS'http://www.cimaglobal.com/About-us/Find-a-CIMA-Accountant/Ruth-Upton-Accounting-Ltd-13720/'
p1226
aS'http://www.cimaglobal.com/About-us/Find-a-CIMA-Accountant/Praddy-Financial-Consultancy-Limited-10516/'
p1227
aS'http://www.cimaglobal.com/About-us/Find-a-CIMA-Accountant/Samanalarisi-Solutions-12446/'
p1228
aS'http://www.cimaglobal.com/About-us/Find-a-CIMA-Accountant/Harmonix-Accounting-Ltd-12086/'
p1229
aS'http://www.cimaglobal.com/About-us/Find-a-CIMA-Accountant/Walden-Tax-and-Accounting-Limited-11891/'
p1230
aS'http://www.cimaglobal.com/About-us/Find-a-CIMA-Accountant/Waldron-Accounts--Consultancy-10665/'
p1231
aS'http://www.cimaglobal.com/About-us/Find-a-CIMA-Accountant/Walton-and-Harvey-Ltd-11934/'
p1232
aS'http://www.cimaglobal.com/About-us/Find-a-CIMA-Accountant/Sarah-Walton-13885/'
p1233
aS'http://www.cimaglobal.com/About-us/Find-a-CIMA-Accountant/Helicopter-Vision-Ltd-10074/'
p1234
aS'http://www.cimaglobal.com/About-us/Find-a-CIMA-Accountant/Anthony-J-Warnock-Chartered-Management-Accountant-10555/'
p1235
aS'http://www.cimaglobal.com/About-us/Find-a-CIMA-Accountant/2EAccountants-11931/'
p1236
aS'http://www.cimaglobal.com/About-us/Find-a-CIMA-Accountant/Annie-Watkins-12298/'
p1237
aS'http://www.cimaglobal.com/About-us/Find-a-CIMA-Accountant/Lesley-Watkinson-Member-in-Practice-10075/'
p1238
aS'http://www.cimaglobal.com/About-us/Find-a-CIMA-Accountant/Merranti-Accounting-Ltd-12447/'
p1239
aS'http://www.cimaglobal.com/About-us/Find-a-CIMA-Accountant/ACWA-Ltd---TA-Sunflower-Financial-Controllers-13160/'
p1240
aS'http://www.cimaglobal.com/About-us/Find-a-CIMA-Accountant/Lemon-Tree-Accountancy-13504/'
p1241
aS'http://www.cimaglobal.com/About-us/Find-a-CIMA-Accountant/Orpheus-Corp-Ltd-ta-OCL-Accountancy-9610/'
p1242
aS'http://www.cimaglobal.com/About-us/Find-a-CIMA-Accountant/Williams-Shepherd-Financial-and-Commercial-Management-Limited-12519/'
p1243
aS'http://www.cimaglobal.com/About-us/Find-a-CIMA-Accountant/C-Williams-Limited-13152/'
p1244
aS'http://www.cimaglobal.com/About-us/Find-a-CIMA-Accountant/Mayfair-Associates-5731/'
p1245
aS'http://www.cimaglobal.com/About-us/Find-a-CIMA-Accountant/Grenfell-James-Associates-Limited-5739/'
p1246
aS'http://www.cimaglobal.com/About-us/Find-a-CIMA-Accountant/Helm-Business-Planning-Ltd-10081/'
p1247
aS'http://www.cimaglobal.com/About-us/Find-a-CIMA-Accountant/Mount-Vernon-Consulting-Ltd-10801/'
p1248
aS'http://www.cimaglobal.com/About-us/Find-a-CIMA-Accountant/Wendy-Yates-Accounting-Services-12287/'
p1249
aS'http://www.cimaglobal.com/About-us/Find-a-CIMA-Accountant/JYBI-Consultancy-Limited-13174/'
p1250
aS'http://www.cimaglobal.com/About-us/Find-a-CIMA-Accountant/Belstone-Associates-Oxford-Limited-12331/'
p1251
aS'http://www.cimaglobal.com/About-us/Find-a-CIMA-Accountant/Enumerate-Ltd-9999/'
p1252
aS'http://www.cimaglobal.com/About-us/Find-a-CIMA-Accountant/M-Benfield-and-Co-Ltd-10218/'
p1253
aS'http://www.cimaglobal.com/About-us/Find-a-CIMA-Accountant/Bennetts-Accountancy-Ltd-5405/'
p1254
aS'http://www.cimaglobal.com/About-us/Find-a-CIMA-Accountant/Kate-Bennett-Accountancy-Services-13192/'
p1255
aS'http://www.cimaglobal.com/About-us/Find-a-CIMA-Accountant/Mark-Bennett-11533/'
p1256
aS'http://www.cimaglobal.com/About-us/Find-a-CIMA-Accountant/Bentley-Financial-Solutions-Ltd-13477/'
p1257
aS'http://www.cimaglobal.com/About-us/Find-a-CIMA-Accountant/Phil-Bessant-Limited-10697/'
p1258
aS'http://www.cimaglobal.com/About-us/Find-a-CIMA-Accountant/A-S-Binnie-Limited-Chartered-Management-Accountant-5412/'
p1259
aS'http://www.cimaglobal.com/About-us/Find-a-CIMA-Accountant/Adam-Joseph-Blake-Ltd-12791/'
p1260
aS'http://www.cimaglobal.com/About-us/Find-a-CIMA-Accountant/Inspired-Financials-Ltd-13846/'
p1261
aS'http://www.cimaglobal.com/About-us/Find-a-CIMA-Accountant/Booth-Financial-Management-Ltd-tas-8020-Financial-Management-10088/'
p1262
aS'http://www.cimaglobal.com/About-us/Find-a-CIMA-Accountant/Keighley-Accountancy-Services-Limited-11444/'
p1263
aS'http://www.cimaglobal.com/About-us/Find-a-CIMA-Accountant/TBD-Hove-Limited-TA-Julie-Bowmer-10831/'
p1264
aS'http://www.cimaglobal.com/About-us/Find-a-CIMA-Accountant/Accounts-UnLimited-5420/'
p1265
aS'http://www.cimaglobal.com/About-us/Find-a-CIMA-Accountant/Cheriton-Financials-11863/'
p1266
aS'http://www.cimaglobal.com/About-us/Find-a-CIMA-Accountant/BusinessBooks-10599/'
p1267
aS'http://www.cimaglobal.com/About-us/Find-a-CIMA-Accountant/David-Briscoe-TA-AIMs-Accountants-for-Business-10417/'
p1268
aS'http://www.cimaglobal.com/About-us/Find-a-CIMA-Accountant/Sysmight-Limited-12776/'
p1269
aS'http://www.cimaglobal.com/About-us/Find-a-CIMA-Accountant/Beyond-Numbers-Ltd-10600/'
p1270
aS'http://www.cimaglobal.com/About-us/Find-a-CIMA-Accountant/APPROVED-ACCOUNTANCY-10472/'
p1271
aS'http://www.cimaglobal.com/About-us/Find-a-CIMA-Accountant/Frinjast-Accounting-Ltd-12168/'
p1272
aS'http://www.cimaglobal.com/About-us/Find-a-CIMA-Accountant/Kingston-Accountants-Ltd-9580/'
p1273
aS'http://www.cimaglobal.com/About-us/Find-a-CIMA-Accountant/Burton-Accountancy-Ltd-5432/'
p1274
aS'http://www.cimaglobal.com/About-us/Find-a-CIMA-Accountant/AMASS-BUSINESS-AND-TAX-CONSULTANTS-11421/'
p1275
aS'http://www.cimaglobal.com/About-us/Find-a-CIMA-Accountant/CJC-Accounting-Solutions-12109/'
p1276
aS'http://www.cimaglobal.com/About-us/Find-a-CIMA-Accountant/Sanay-Limited-12856/'
p1277
aS'http://www.cimaglobal.com/About-us/Find-a-CIMA-Accountant/Annette-Carthy-Trading-as-AIMS-13585/'
p1278
aS'http://www.cimaglobal.com/About-us/Find-a-CIMA-Accountant/Castle-Heslop-Associates-Ltd-9471/'
p1279
aS'http://www.cimaglobal.com/About-us/Find-a-CIMA-Accountant/M-Chilton-Accountancy-Services-Limited-10604/'
p1280
aS'http://www.cimaglobal.com/About-us/Find-a-CIMA-Accountant/Michael-Clark-Limited-10477/'
p1281
aS'http://www.cimaglobal.com/About-us/Find-a-CIMA-Accountant/Chippendale--Clark-12213/'
p1282
aS'http://www.cimaglobal.com/About-us/Find-a-CIMA-Accountant/Progue-UK-Ltd-10138/'
p1283
aS'http://www.cimaglobal.com/About-us/Find-a-CIMA-Accountant/AIMS-Accountants-fro-Business-10004/'
p1284
aS'http://www.cimaglobal.com/About-us/Find-a-CIMA-Accountant/Cooke-Webster--Co-5455/'
p1285
aS'http://www.cimaglobal.com/About-us/Find-a-CIMA-Accountant/Hilary-Cooke-13072/'
p1286
aS'http://www.cimaglobal.com/About-us/Find-a-CIMA-Accountant/Trade-Accountancy-12602/'
p1287
aS'http://www.cimaglobal.com/About-us/Find-a-CIMA-Accountant/AA--Associates-Solutions-Ltd-13475/'
p1288
aS'http://www.cimaglobal.com/About-us/Find-a-CIMA-Accountant/The-Greenways-Partnership-Ltd-5377/'
p1289
aS'http://www.cimaglobal.com/About-us/Find-a-CIMA-Accountant/Actax-Consultants-Ltd-12798/'
p1290
aS'http://www.cimaglobal.com/About-us/Find-a-CIMA-Accountant/Ian-Aiken-TA-TaxAssist-Accountants-12106/'
p1291
aS'http://www.cimaglobal.com/About-us/Find-a-CIMA-Accountant/CMA-Accountancy-Ltd-11212/'
p1292
aS'http://www.cimaglobal.com/About-us/Find-a-CIMA-Accountant/Simpson-Accountancy-LimitedInkpot-Group-LtdAlison-Hurrell-LtdEssex-Accountants-Ltd-9996/'
p1293
aS'http://www.cimaglobal.com/About-us/Find-a-CIMA-Accountant/Savvy-Accounting-13459/'
p1294
aS'http://www.cimaglobal.com/About-us/Find-a-CIMA-Accountant/Mount-View-Accountancy-Services-Ltd-10587/'
p1295
aS'http://www.cimaglobal.com/About-us/Find-a-CIMA-Accountant/Ayeh--Co-5389/'
p1296
aS'http://www.cimaglobal.com/About-us/Find-a-CIMA-Accountant/Chris-Badham--Associates-Ltd-13092/'
p1297
aS'http://www.cimaglobal.com/About-us/Find-a-CIMA-Accountant/Bagshaws-Accountancy-Services-9442/'
p1298
aS'http://www.cimaglobal.com/About-us/Find-a-CIMA-Accountant/Bains-Accountants-Limited-12838/'
p1299
aS'http://www.cimaglobal.com/About-us/Find-a-CIMA-Accountant/Baldwin-Financials-Ltd-12831/'
p1300
aS'http://www.cimaglobal.com/About-us/Find-a-CIMA-Accountant/Banks-Accounting-Limited-11529/'
p1301
aS'http://www.cimaglobal.com/About-us/Find-a-CIMA-Accountant/Robert-Bantoft---AIMS-Accountants-for-Business-10195/'
p1302
aS'http://www.cimaglobal.com/About-us/Find-a-CIMA-Accountant/N-J-SIMS-ACCOUNTANTS-LTD-TA-TaxAssist-10124/'
p1303
aS'http://www.cimaglobal.com/About-us/Find-a-CIMA-Accountant/Admil-ltd-13151/'
p1304
aS'http://www.cimaglobal.com/About-us/Find-a-CIMA-Accountant/Skelly-Accountancy-Ltd-ta-David-Skelly-Accountancy-9834/'
p1305
aS'http://www.cimaglobal.com/About-us/Find-a-CIMA-Accountant/P2Pfinance-Ltd-10797/'
p1306
aS'http://www.cimaglobal.com/About-us/Find-a-CIMA-Accountant/Hudson-Conway-Gloucestershire-Limited-10063/'
p1307
aS'http://www.cimaglobal.com/About-us/Find-a-CIMA-Accountant/Andrew-C-Smallwood--Co-Ltd-9667/'
p1308
aS'http://www.cimaglobal.com/About-us/Find-a-CIMA-Accountant/Anthony-Smith--Co-Limited-10368/'
p1309
aS'http://www.cimaglobal.com/About-us/Find-a-CIMA-Accountant/BAS-Associates-10125/'
p1310
aS'http://www.cimaglobal.com/About-us/Find-a-CIMA-Accountant/Transform-Accounting-Ltd-11246/'
p1311
aS'http://www.cimaglobal.com/About-us/Find-a-CIMA-Accountant/Kelvin-Smith--Co-5668/'
p1312
aS'http://www.cimaglobal.com/About-us/Find-a-CIMA-Accountant/Dallas--Martin-Accountancy-Limited-5669/'
p1313
aS'http://www.cimaglobal.com/About-us/Find-a-CIMA-Accountant/Watersmiths-Business-Services-Ltd-13196/'
p1314
aS'http://www.cimaglobal.com/About-us/Find-a-CIMA-Accountant/Priority-Business-Solutions-5672/'
p1315
aS'http://www.cimaglobal.com/About-us/Find-a-CIMA-Accountant/Thomas-Associates-10187/'
p1316
aS'http://www.cimaglobal.com/About-us/Find-a-CIMA-Accountant/Platinum-Consultants-Ltd-10983/'
p1317
aS'http://www.cimaglobal.com/About-us/Find-a-CIMA-Accountant/Ace-Consultants-Ltd-10798/'
p1318
aS'http://www.cimaglobal.com/About-us/Find-a-CIMA-Accountant/Sritheran--Co-TA-Comtax-Limited-12352/'
p1319
aS'http://www.cimaglobal.com/About-us/Find-a-CIMA-Accountant/FD-Business-Ltd-11697/'
p1320
aS'http://www.cimaglobal.com/About-us/Find-a-CIMA-Accountant/Stephenson-Tilley-Ltd-12605/'
p1321
aS'http://www.cimaglobal.com/About-us/Find-a-CIMA-Accountant/Pete-Stevenson-Chartered-Management-Accountants-13603/'
p1322
aS'http://www.cimaglobal.com/About-us/Find-a-CIMA-Accountant/Stoneman-Storey-Ltd-11930/'
p1323
aS'http://www.cimaglobal.com/About-us/Find-a-CIMA-Accountant/Accountancy-Aid-International-5679/'
p1324
aS'http://www.cimaglobal.com/About-us/Find-a-CIMA-Accountant/PS-Sugden-Limited-10892/'
p1325
aS'http://www.cimaglobal.com/About-us/Find-a-CIMA-Accountant/E--A-Accountancy-Services-LTD-9902/'
p1326
aS'http://www.cimaglobal.com/About-us/Find-a-CIMA-Accountant/Cashbench-LTD-13873/'
p1327
aS'http://www.cimaglobal.com/About-us/Find-a-CIMA-Accountant/The-Blue-Skies-Partnership-9678/'
p1328
aS'http://www.cimaglobal.com/About-us/Find-a-CIMA-Accountant/Fox-Accountancy-Ltd-10373/'
p1329
aS'http://www.cimaglobal.com/About-us/Find-a-CIMA-Accountant/Accountax-Financial-Limited-12400/'
p1330
aS'http://www.cimaglobal.com/About-us/Find-a-CIMA-Accountant/Accounting-Logic-Limited-The-Practice-13051/'
p1331
aS'http://www.cimaglobal.com/About-us/Find-a-CIMA-Accountant/Your-Finance-Dept-Biz-Limited-11248/'
p1332
aS'http://www.cimaglobal.com/About-us/Find-a-CIMA-Accountant/Taylor-Accounting-13488/'
p1333
aS'http://www.cimaglobal.com/About-us/Find-a-CIMA-Accountant/Doyles-11655/'
p1334
aS'http://www.cimaglobal.com/About-us/Find-a-CIMA-Accountant/Vincent-Doyle-ta-AIMS-10017/'
p1335
aS'http://www.cimaglobal.com/About-us/Find-a-CIMA-Accountant/ALD--Business-Services-Ltd-9625/'
p1336
aS'http://www.cimaglobal.com/About-us/Find-a-CIMA-Accountant/Fair-Value-Accounting-Services-13478/'
p1337
aS'http://www.cimaglobal.com/About-us/Find-a-CIMA-Accountant/Lovington-Accounting-10019/'
p1338
aS'http://www.cimaglobal.com/About-us/Find-a-CIMA-Accountant/DNS-Consulting-9984/'
p1339
aS'http://www.cimaglobal.com/About-us/Find-a-CIMA-Accountant/EMAS-5484/'
p1340
aS'http://www.cimaglobal.com/About-us/Find-a-CIMA-Accountant/NWE-Accounting-Services-Ltd-10785/'
p1341
aS'http://www.cimaglobal.com/About-us/Find-a-CIMA-Accountant/Majid-Elias-trading-as-LME-Accountants-12368/'
p1342
aS'http://www.cimaglobal.com/About-us/Find-a-CIMA-Accountant/J-M-Ellis-12596/'
p1343
aS'http://www.cimaglobal.com/About-us/Find-a-CIMA-Accountant/-Claire-Evans-9354/'
p1344
aS'http://www.cimaglobal.com/About-us/Find-a-CIMA-Accountant/Venture-4th-Ltd-10421/'
p1345
aS'http://www.cimaglobal.com/About-us/Find-a-CIMA-Accountant/DJF-Accountants--Tax-Advisers-Ltd-5492/'
p1346
aS'http://www.cimaglobal.com/About-us/Find-a-CIMA-Accountant/Anne-Fairbrother--Co-Ltd-9536/'
p1347
aS'http://www.cimaglobal.com/About-us/Find-a-CIMA-Accountant/One-Accounting-5493/'
p1348
aS'http://www.cimaglobal.com/About-us/Find-a-CIMA-Accountant/Finch-Accounting-Solutions-Limited-13736/'
p1349
aS'http://www.cimaglobal.com/About-us/Find-a-CIMA-Accountant/Boyett-Mayes-Ltd-10487/'
p1350
aS'http://www.cimaglobal.com/About-us/Find-a-CIMA-Accountant/Balance-The-Books-Accounting-Services-Ltd-9605/'
p1351
aS'http://www.cimaglobal.com/About-us/Find-a-CIMA-Accountant/Demeer-Ltd-10294/'
p1352
aS'http://www.cimaglobal.com/About-us/Find-a-CIMA-Accountant/Seachelle-Consulting-Ltd-12786/'
p1353
aS'http://www.cimaglobal.com/About-us/Find-a-CIMA-Accountant/David-Fox-TA-AIMS-Accountants-10489/'
p1354
aS'http://www.cimaglobal.com/About-us/Find-a-CIMA-Accountant/Money-Talks-Accounting-Services-Ltd-11867/'
p1355
aS'http://www.cimaglobal.com/About-us/Find-a-CIMA-Accountant/383-Solutions-Limited-13752/'
p1356
aS'http://www.cimaglobal.com/About-us/Find-a-CIMA-Accountant/Outbased-12391/'
p1357
aS'http://www.cimaglobal.com/About-us/Find-a-CIMA-Accountant/VK-Accountancy-Services-Limited-10430/'
p1358
aS'http://www.cimaglobal.com/About-us/Find-a-CIMA-Accountant/John-Lees-Chartered-Management-Accountant-13769/'
p1359
aS'http://www.cimaglobal.com/About-us/Find-a-CIMA-Accountant/Leggate-Associates-Ltd-5566/'
p1360
aS'http://www.cimaglobal.com/About-us/Find-a-CIMA-Accountant/Oakerthorpe-Accountancy-Limited-5572/'
p1361
aS'http://www.cimaglobal.com/About-us/Find-a-CIMA-Accountant/F-D-Input-Ltd-12793/'
p1362
aS'http://www.cimaglobal.com/About-us/Find-a-CIMA-Accountant/Myrtleberry-9670/'
p1363
aS'http://www.cimaglobal.com/About-us/Find-a-CIMA-Accountant/Profitability-Solutions-Ltd-9656/'
p1364
aS'http://www.cimaglobal.com/About-us/Find-a-CIMA-Accountant/Prevail-Accountancy-Ltd-9785/'
p1365
aS'http://www.cimaglobal.com/About-us/Find-a-CIMA-Accountant/Fife-Business-Services-Ltd-9971/'
p1366
aS'http://www.cimaglobal.com/About-us/Find-a-CIMA-Accountant/FINMAC-Solutions-Limited-13593/'
p1367
aS'http://www.cimaglobal.com/About-us/Find-a-CIMA-Accountant/AM-Chartered-Management-Accountants-13739/'
p1368
aS'http://www.cimaglobal.com/About-us/Find-a-CIMA-Accountant/Ejaz-and-company-11733/'
p1369
aS'http://www.cimaglobal.com/About-us/Find-a-CIMA-Accountant/Paul-Marlow-10164/'
p1370
aS'http://www.cimaglobal.com/About-us/Find-a-CIMA-Accountant/Milestone-Treasury-Accounting-Limited-13781/'
p1371
aS'http://www.cimaglobal.com/About-us/Find-a-CIMA-Accountant/VM-Financial-Consultancy-13101/'
p1372
aS'http://www.cimaglobal.com/About-us/Find-a-CIMA-Accountant/BSM-Accountancy-Services-11618/'
p1373
aS'http://www.cimaglobal.com/About-us/Find-a-CIMA-Accountant/Mason-Williams-Limited-10104/'
p1374
aS'http://www.cimaglobal.com/About-us/Find-a-CIMA-Accountant/AFM-Solutions-Limited-12435/'
p1375
aS'http://www.cimaglobal.com/About-us/Find-a-CIMA-Accountant/Alchemy-Financial-Solutions-10105/'
p1376
aS'http://www.cimaglobal.com/About-us/Find-a-CIMA-Accountant/MGMT-Accounting-Limited-12474/'
p1377
aS'http://www.cimaglobal.com/About-us/Find-a-CIMA-Accountant/Gamages-Accountancy-Ltd-10422/'
p1378
aS'http://www.cimaglobal.com/About-us/Find-a-CIMA-Accountant/George--Co-10399/'
p1379
aS'http://www.cimaglobal.com/About-us/Find-a-CIMA-Accountant/Labyrinth-Accountancy-Limited-10317/'
p1380
aS'http://www.cimaglobal.com/About-us/Find-a-CIMA-Accountant/Paul-Glover-Associates-Ltd-5509/'
p1381
aS'http://www.cimaglobal.com/About-us/Find-a-CIMA-Accountant/Mark-Gosling--Co-Accountancy-Ltd-5513/'
p1382
aS'http://www.cimaglobal.com/About-us/Find-a-CIMA-Accountant/Gough-Accountancy-Ltd-10400/'
p1383
aS'http://www.cimaglobal.com/About-us/Find-a-CIMA-Accountant/Bramley-Management-Ltd-10028/'
p1384
aS'http://www.cimaglobal.com/About-us/Find-a-CIMA-Accountant/Excluserv-Ltd-9887/'
p1385
aS'http://www.cimaglobal.com/About-us/Find-a-CIMA-Accountant/Halbert-Accountancy-Ltd-12430/'
p1386
aS'http://www.cimaglobal.com/About-us/Find-a-CIMA-Accountant/WMCE--CO-Ltd-10627/'
p1387
aS'http://www.cimaglobal.com/About-us/Find-a-CIMA-Accountant/PLS-Management-Ltd-12598/'
p1388
aS'http://www.cimaglobal.com/About-us/Find-a-CIMA-Accountant/ACE-Business-Management-Solutions-13135/'
p1389
aS'http://www.cimaglobal.com/About-us/Find-a-CIMA-Accountant/Beancounting-4-Business-11547/'
p1390
aS'http://www.cimaglobal.com/About-us/Find-a-CIMA-Accountant/Your-Tax-Matters-Ltd-TA-AIMS-Accountants-for-Business-5522/'
p1391
aS'http://www.cimaglobal.com/About-us/Find-a-CIMA-Accountant/Autumn-Accounts-Ltd-12008/'
p1392
aS'http://www.cimaglobal.com/About-us/Find-a-CIMA-Accountant/CIGMA-ACCOUNTING-LTD-13158/'
p1393
aS'http://www.cimaglobal.com/About-us/Find-a-CIMA-Accountant/Jon-Harris-13136/'
p1394
aS'http://www.cimaglobal.com/About-us/Find-a-CIMA-Accountant/Seebys-Consultancy-Ltd-13497/'
p1395
aS'http://www.cimaglobal.com/About-us/Find-a-CIMA-Accountant/Mark-Haskett-Associates-Ltd-10885/'
p1396
aS'http://www.cimaglobal.com/About-us/Find-a-CIMA-Accountant/Value-Add-Consultancy-Limited-13119/'
p1397
aS'http://www.cimaglobal.com/About-us/Find-a-CIMA-Accountant/DMH-Accountancy-9748/'
p1398
aS'http://www.cimaglobal.com/About-us/Find-a-CIMA-Accountant/Mpathy-limited-11688/'
p1399
aS'http://www.cimaglobal.com/About-us/Find-a-CIMA-Accountant/Cathedral-Accounting-Services-12221/'
p1400
aS'http://www.cimaglobal.com/About-us/Find-a-CIMA-Accountant/MACH-Accounting-Ltd-12222/'
p1401
aS'http://www.cimaglobal.com/About-us/Find-a-CIMA-Accountant/Simple-Accounting-Ltd-11871/'
p1402
aS'http://www.cimaglobal.com/About-us/Find-a-CIMA-Accountant/ev8-ltd-9360/'
p1403
aS'http://www.cimaglobal.com/About-us/Find-a-CIMA-Accountant/Integral-Finance-Ltd--Integral-Biopartners-LLP-11463/'
p1404
aS'http://www.cimaglobal.com/About-us/Find-a-CIMA-Accountant/Eagle-Consulting-5537/'
p1405
aS'http://www.cimaglobal.com/About-us/Find-a-CIMA-Accountant/Rivington-Accounts-Limited-10101/'
p1406
aS'http://www.cimaglobal.com/About-us/Find-a-CIMA-Accountant/Horwood-Accounting-Solutions-Limited-13677/'
p1407
aS'http://www.cimaglobal.com/About-us/Find-a-CIMA-Accountant/G-W-H-Finance-Ltd-10427/'
p1408
aS'http://www.cimaglobal.com/About-us/Find-a-CIMA-Accountant/Peak-Business-Solutions-Limited-5542/'
p1409
aS'http://www.cimaglobal.com/About-us/Find-a-CIMA-Accountant/Iles-Accountancy-Services-Ltd-10102/'
p1410
aS'http://www.cimaglobal.com/About-us/Find-a-CIMA-Accountant/INTERFACE-ACCOUNTANCY-LIMITED-13847/'
p1411
aS'http://www.cimaglobal.com/About-us/Find-a-CIMA-Accountant/Lucid-Accountants-Limited-9687/'
p1412
aS'http://www.cimaglobal.com/About-us/Find-a-CIMA-Accountant/-H-L-Jackson-Accountancy-Ltd-13715/'
p1413
aS'http://www.cimaglobal.com/About-us/Find-a-CIMA-Accountant/Heavenly-Online-Accountants-12074/'
p1414
aS'http://www.cimaglobal.com/About-us/Find-a-CIMA-Accountant/Joanne-McIntosh-Accountancy-11427/'
p1415
aS'http://www.cimaglobal.com/About-us/Find-a-CIMA-Accountant/EAM-Accounting-Ltd-13872/'
p1416
aS'http://www.cimaglobal.com/About-us/Find-a-CIMA-Accountant/Tracy-McLaughlin-12926/'
p1417
aS'http://www.cimaglobal.com/About-us/Find-a-CIMA-Accountant/Acumen-Wessex-10432/'
p1418
aS'http://www.cimaglobal.com/About-us/Find-a-CIMA-Accountant/Lorraine-Mears-10503/'
p1419
aS'http://www.cimaglobal.com/About-us/Find-a-CIMA-Accountant/Bookham-Consulting-Ass-Ltd-5592/'
p1420
aS'http://www.cimaglobal.com/About-us/Find-a-CIMA-Accountant/Lima-Accountancy-Services-Ltd-12393/'
p1421
aS'http://www.cimaglobal.com/About-us/Find-a-CIMA-Accountant/Azure-financial-services-ltd-10337/'
p1422
aS'http://www.cimaglobal.com/About-us/Find-a-CIMA-Accountant/Kate-Moakes---AIMS-Accountants-for-Business-13596/'
p1423
aS'http://www.cimaglobal.com/About-us/Find-a-CIMA-Accountant/Edmund-Napier-Accountants-Ltd-12345/'
p1424
aS'http://www.cimaglobal.com/About-us/Find-a-CIMA-Accountant/MH-Accounting-Solutions-Ltd-11237/'
p1425
aS'http://www.cimaglobal.com/About-us/Find-a-CIMA-Accountant/Fiscal-Performance-Ltd-12504/'
p1426
aS'http://www.cimaglobal.com/About-us/Find-a-CIMA-Accountant/VFIN-Limited-13717/'
p1427
aS'http://www.cimaglobal.com/About-us/Find-a-CIMA-Accountant/Key-Professional-Services-Ltd-10814/'
p1428
aS'http://www.cimaglobal.com/About-us/Find-a-CIMA-Accountant/Karen-Roddam-TA-AIMS-13698/'
p1429
aS'http://www.cimaglobal.com/About-us/Find-a-CIMA-Accountant/NumberFactory-10359/'
p1430
aS'http://www.cimaglobal.com/About-us/Find-a-CIMA-Accountant/Pragmatic-Business-Accountants-Ltd-12752/'
p1431
aS'http://www.cimaglobal.com/About-us/Find-a-CIMA-Accountant/P-A-Rushton-Ltd-10361/'
p1432
aS'http://www.cimaglobal.com/About-us/Find-a-CIMA-Accountant/Regis--Co-10362/'
p1433
aS'http://www.cimaglobal.com/About-us/Find-a-CIMA-Accountant/Saini-And-Co-10687/'
p1434
aS'http://www.cimaglobal.com/About-us/Find-a-CIMA-Accountant/Oakwood-Accountancy-5652/'
p1435
aS'http://www.cimaglobal.com/About-us/Find-a-CIMA-Accountant/Miss-S-Business-Support-Ltd-12859/'
p1436
aS'http://www.cimaglobal.com/About-us/Find-a-CIMA-Accountant/Lindhope-Consultants-Ltd-13170/'
p1437
aS'http://www.cimaglobal.com/About-us/Find-a-CIMA-Accountant/Jeremy-Scott-MSc-10366/'
p1438
aS'http://www.cimaglobal.com/About-us/Find-a-CIMA-Accountant/Integrity-Accountancy-Services-Ltd-11244/'
p1439
aS'http://www.cimaglobal.com/About-us/Find-a-CIMA-Accountant/Vinod-Shah--Company-9601/'
p1440
aS'http://www.cimaglobal.com/About-us/Find-a-CIMA-Accountant/DMS-Accounting-Services-Limited-9981/'
p1441
aS'http://www.cimaglobal.com/About-us/Find-a-CIMA-Accountant/Crunchers-Edinburgh-13049/'
p1442
aS'http://www.cimaglobal.com/About-us/Find-a-CIMA-Accountant/LRS-Accountancy-Services-Ltd-10367/'
p1443
aS'http://www.cimaglobal.com/About-us/Find-a-CIMA-Accountant/Balanced-Accounts-and-Payroll-Services-Ltd-11929/'
p1444
aS'http://www.cimaglobal.com/About-us/Find-a-CIMA-Accountant/Muftals-Accountancy-LtdFreelancer-Accountants-Ltd-11238/'
p1445
aS'http://www.cimaglobal.com/About-us/Find-a-CIMA-Accountant/Macfarlane--Muir-Ltd-10434/'
p1446
aS'http://www.cimaglobal.com/About-us/Find-a-CIMA-Accountant/Queensbury-Consulting-Limited-12907/'
p1447
aS'http://www.cimaglobal.com/About-us/Find-a-CIMA-Accountant/All-Accounting-Limited-12488/'
p1448
aS'http://www.cimaglobal.com/About-us/Find-a-CIMA-Accountant/Newnham--Son-Ltd-11305/'
p1449
aS'http://www.cimaglobal.com/About-us/Find-a-CIMA-Accountant/J-Nicholls--Associates-Ltd-9791/'
p1450
aS'http://www.cimaglobal.com/About-us/Find-a-CIMA-Accountant/Accountancy-Plus-Financial-Advice-Ltd-10343/'
p1451
aS'http://www.cimaglobal.com/About-us/Find-a-CIMA-Accountant/Stuart-P-Norman-9755/'
p1452
aS'http://www.cimaglobal.com/About-us/Find-a-CIMA-Accountant/Northmore-Business-Associates-Ltd-5612/'
p1453
aS'http://www.cimaglobal.com/About-us/Find-a-CIMA-Accountant/PSF-Accounting-Ltd-9608/'
p1454
aS'http://www.cimaglobal.com/About-us/Find-a-CIMA-Accountant/HCO-Accountancy-Services-LTD-10112/'
p1455
aS'http://www.cimaglobal.com/About-us/Find-a-CIMA-Accountant/Ticknall-Accounting-Services-11885/'
p1456
aS'http://www.cimaglobal.com/About-us/Find-a-CIMA-Accountant/Combe-Accountancy-Ltd-13229/'
p1457
aS'http://www.cimaglobal.com/About-us/Find-a-CIMA-Accountant/Numbers-Accountancy-Ltd-12004/'
p1458
aS'http://www.cimaglobal.com/About-us/Find-a-CIMA-Accountant/TaxAssist-Accountants-Woking-10439/'
p1459
aS'http://www.cimaglobal.com/About-us/Find-a-CIMA-Accountant/Number-Crunchers-Sheffield-Ltd-12275/'
p1460
aS'http://www.cimaglobal.com/About-us/Find-a-CIMA-Accountant/H-E-Phillips-Limited-12276/'
p1461
aS'http://www.cimaglobal.com/About-us/Find-a-CIMA-Accountant/Virtual-CFO-Limited-10522/'
p1462
aS'http://www.cimaglobal.com/About-us/Find-a-CIMA-Accountant/Flexi-Finance-Office-Ltd-9657/'
p1463
aS'http://www.cimaglobal.com/About-us/Find-a-CIMA-Accountant/Weald-Bookkeeping-Services-Ltd-10224/'
p1464
aS'http://www.cimaglobal.com/About-us/Find-a-CIMA-Accountant/Harold-K-Porter--Co-10458/'
p1465
aS'http://www.cimaglobal.com/About-us/Find-a-CIMA-Accountant/Rona-Purdham-Financial-Management-Limited-10355/'
p1466
aS'http://www.cimaglobal.com/About-us/Find-a-CIMA-Accountant/F4-Consulting-12189/'
p1467
aS'http://www.cimaglobal.com/About-us/Find-a-CIMA-Accountant/Accountancy-Choice-Limited-10653/'
p1468
aS'http://www.cimaglobal.com/About-us/Find-a-CIMA-Accountant/Your-Finance-Team-Ltd-12655/'
p1469
aS'http://www.cimaglobal.com/About-us/Find-a-CIMA-Accountant/Romena-Ratkeviciute-Accounting-13848/'
p1470
aS'http://www.cimaglobal.com/About-us/Find-a-CIMA-Accountant/SARAH-REDFERN-12415/'
p1471
aS'http://www.cimaglobal.com/About-us/Find-a-CIMA-Accountant/Accountancy-Services-Auchterarder-Ltd-10441/'
p1472
aS'http://www.cimaglobal.com/About-us/Find-a-CIMA-Accountant/Clear-Cut-Accounts-9833/'
p1473
a.